(dp0
S'P0796__1__0___0.png'
p1
(lp2
(dp3
S'name'
p4
S'ship'
p5
sS'bbox'
p6
cnumpy.core.multiarray
_reconstruct
p7
(cnumpy
ndarray
p8
(I0
tp9
S'b'
p10
tp11
Rp12
(I1
(I0
I6
tp13
cnumpy
dtype
p14
(S'f8'
p15
I0
I1
tp16
Rp17
(I3
S'<'
p18
NNNI-1
I-1
I0
tp19
bI00
S''
p20
tp21
bsasS'P0053__1__0___500.png'
p22
(lp23
(dp24
g4
g5
sg6
g7
(g8
(I0
tp25
g10
tp26
Rp27
(I1
(I0
I6
tp28
g17
I00
g20
tp29
bsasS'P1090__1__1173___0.png'
p30
(lp31
(dp32
g4
g5
sg6
g7
(g8
(I0
tp33
g10
tp34
Rp35
(I1
(I0
I6
tp36
g17
I00
g20
tp37
bsasS'P0704__1__900___0.png'
p38
(lp39
(dp40
g4
g5
sg6
g7
(g8
(I0
tp41
g10
tp42
Rp43
(I1
(I0
I6
tp44
g17
I00
g20
tp45
bsasS'P0110__1__1564___500.png'
p46
(lp47
(dp48
g4
g5
sg6
g7
(g8
(I0
tp49
g10
tp50
Rp51
(I1
(I0
I6
tp52
g17
I00
g20
tp53
bsasS'P0801__1__1800___500.png'
p54
(lp55
(dp56
g4
g5
sg6
g7
(g8
(I0
tp57
g10
tp58
Rp59
(I1
(I0
I6
tp60
g17
I00
g20
tp61
bsasS'P0887__1__900___2164.png'
p62
(lp63
(dp64
g4
g5
sg6
g7
(g8
(I0
tp65
g10
tp66
Rp67
(I1
(I0
I6
tp68
g17
I00
g20
tp69
bsasS'P0518__1__0___0.png'
p70
(lp71
(dp72
g4
g5
sg6
g7
(g8
(I0
tp73
g10
tp74
Rp75
(I1
(I0
I6
tp76
g17
I00
g20
tp77
bsasS'P1242__1__2700___500.png'
p78
(lp79
(dp80
g4
g5
sg6
g7
(g8
(I0
tp81
g10
tp82
Rp83
(I1
(I0
I6
tp84
g17
I00
g20
tp85
bsasS'P0796__1__0___500.png'
p86
(lp87
(dp88
g4
g5
sg6
g7
(g8
(I0
tp89
g10
tp90
Rp91
(I1
(I0
I6
tp92
g17
I00
g20
tp93
bsasS'P1275__1__2700___1000.png'
p94
(lp95
(dp96
g4
g5
sg6
g7
(g8
(I0
tp97
g10
tp98
Rp99
(I1
(I0
I6
tp100
g17
I00
g20
tp101
bsasS'P2758__1__900___500.png'
p102
(lp103
(dp104
g4
g5
sg6
g7
(g8
(I0
tp105
g10
tp106
Rp107
(I1
(I0
I6
tp108
g17
I00
g20
tp109
bsasS'P0704__1__1136___0.png'
p110
(lp111
(dp112
g4
g5
sg6
g7
(g8
(I0
tp113
g10
tp114
Rp115
(I1
(I0
I6
tp116
g17
I00
g20
tp117
bsasS'P0715__1__0___1011.png'
p118
(lp119
(dp120
g4
g5
sg6
g7
(g8
(I0
tp121
g10
tp122
Rp123
(I1
(I0
I6
tp124
g17
I00
g20
tp125
bsasS'P2794__1__2700___2000.png'
p126
(lp127
(dp128
g4
g5
sg6
g7
(g8
(I0
tp129
g10
tp130
Rp131
(I1
(I0
I6
tp132
g17
I00
g20
tp133
bsasS'P0864__1__900___1000.png'
p134
(lp135
(dp136
g4
g5
sg6
g7
(g8
(I0
tp137
g10
tp138
Rp139
(I1
(I0
I6
tp140
g17
I00
g20
tp141
bsasS'P1075__1__1163___500.png'
p142
(lp143
(dp144
g4
g5
sg6
g7
(g8
(I0
tp145
g10
tp146
Rp147
(I1
(I0
I6
tp148
g17
I00
g20
tp149
bsasS'P2429__1__0___1500.png'
p150
(lp151
(dp152
g4
g5
sg6
g7
(g8
(I0
tp153
g10
tp154
Rp155
(I1
(I0
I6
tp156
g17
I00
g20
tp157
bsasS'P2726__1__900___500.png'
p158
(lp159
(dp160
g4
g5
sg6
g7
(g8
(I0
tp161
g10
tp162
Rp163
(I1
(I0
I6
tp164
g17
I00
g20
tp165
bsasS'P0715__1__330___1011.png'
p166
(lp167
(dp168
g4
g5
sg6
g7
(g8
(I0
tp169
g10
tp170
Rp171
(I1
(I0
I6
tp172
g17
I00
g20
tp173
bsasS'P2794__1__1800___1000.png'
p174
(lp175
(dp176
g4
g5
sg6
g7
(g8
(I0
tp177
g10
tp178
Rp179
(I1
(I0
I6
tp180
g17
I00
g20
tp181
bsasS'P2645__1__3605___2842.png'
p182
(lp183
(dp184
g4
g5
sg6
g7
(g8
(I0
tp185
g10
tp186
Rp187
(I1
(I0
I6
tp188
g17
I00
g20
tp189
bsasS'P0683__1__900___1824.png'
p190
(lp191
(dp192
g4
g5
sg6
g7
(g8
(I0
tp193
g10
tp194
Rp195
(I1
(I0
I6
tp196
g17
I00
g20
tp197
bsasS'P0353__1__170___500.png'
p198
(lp199
(dp200
g4
g5
sg6
g7
(g8
(I0
tp201
g10
tp202
Rp203
(I1
(I0
I6
tp204
g17
I00
g20
tp205
bsasS'P2733__1__1827___2000.png'
p206
(lp207
(dp208
g4
g5
sg6
g7
(g8
(I0
tp209
g10
tp210
Rp211
(I1
(I0
I6
tp212
g17
I00
g20
tp213
bsasS'P2794__1__2700___3841.png'
p214
(lp215
(dp216
g4
g5
sg6
g7
(g8
(I0
tp217
g10
tp218
Rp219
(I1
(I0
I6
tp220
g17
I00
g20
tp221
bsasS'P2645__1__0___0.png'
p222
(lp223
(dp224
g4
g5
sg6
g7
(g8
(I0
tp225
g10
tp226
Rp227
(I1
(I0
I6
tp228
g17
I00
g20
tp229
bsasS'P2285__1__0___500.png'
p230
(lp231
(dp232
g4
g5
sg6
g7
(g8
(I0
tp233
g10
tp234
Rp235
(I1
(I0
I6
tp236
g17
I00
g20
tp237
bsasS'P2645__1__2700___500.png'
p238
(lp239
(dp240
g4
g5
sg6
g7
(g8
(I0
tp241
g10
tp242
Rp243
(I1
(I0
I6
tp244
g17
I00
g20
tp245
bsasS'P0053__1__0___0.png'
p246
(lp247
(dp248
g4
g5
sg6
g7
(g8
(I0
tp249
g10
tp250
Rp251
(I1
(I0
I6
tp252
g17
I00
g20
tp253
bsasS'P0749__1__0___0.png'
p254
(lp255
(dp256
g4
g5
sg6
g7
(g8
(I0
tp257
g10
tp258
Rp259
(I1
(I0
I6
tp260
g17
I00
g20
tp261
bsasS'P0128__1__0___0.png'
p262
(lp263
(dp264
g4
g5
sg6
g7
(g8
(I0
tp265
g10
tp266
Rp267
(I1
(I0
I6
tp268
g17
I00
g20
tp269
bsasS'P1738__1__0___1000.png'
p270
(lp271
(dp272
g4
g5
sg6
g7
(g8
(I0
tp273
g10
tp274
Rp275
(I1
(I0
I6
tp276
g17
I00
g20
tp277
bsasS'P2766__1__2700___500.png'
p278
(lp279
(dp280
g4
g5
sg6
g7
(g8
(I0
tp281
g10
tp282
Rp283
(I1
(I0
I6
tp284
g17
I00
g20
tp285
bsasS'P0795__1__776___0.png'
p286
(lp287
(dp288
g4
g5
sg6
g7
(g8
(I0
tp289
g10
tp290
Rp291
(I1
(I0
I6
tp292
g17
I00
g20
tp293
bsasS'P1066__1__699___2000.png'
p294
(lp295
(dp296
g4
g5
sg6
g7
(g8
(I0
tp297
g10
tp298
Rp299
(I1
(I0
I6
tp300
g17
I00
g20
tp301
bsasS'P2758__1__0___2000.png'
p302
(lp303
(dp304
g4
g5
sg6
g7
(g8
(I0
tp305
g10
tp306
Rp307
(I1
(I0
I6
tp308
g17
I00
g20
tp309
bsasS'P1278__1__2700___1000.png'
p310
(lp311
(dp312
g4
g5
sg6
g7
(g8
(I0
tp313
g10
tp314
Rp315
(I1
(I0
I6
tp316
g17
I00
g20
tp317
bsasS'P1429__1__1800___1500.png'
p318
(lp319
(dp320
g4
g5
sg6
g7
(g8
(I0
tp321
g10
tp322
Rp323
(I1
(I0
I6
tp324
g17
I00
g20
tp325
bsasS'P0864__1__1800___0.png'
p326
(lp327
(dp328
g4
g5
sg6
g7
(g8
(I0
tp329
g10
tp330
Rp331
(I1
(I0
I6
tp332
g17
I00
g20
tp333
bsasS'P2794__1__0___500.png'
p334
(lp335
(dp336
g4
g5
sg6
g7
(g8
(I0
tp337
g10
tp338
Rp339
(I1
(I0
I6
tp340
g17
I00
g20
tp341
bsasS'P0761__1__618___500.png'
p342
(lp343
(dp344
g4
g5
sg6
g7
(g8
(I0
tp345
g10
tp346
Rp347
(I1
(I0
I6
tp348
g17
I00
g20
tp349
bsasS'P0864__1__0___500.png'
p350
(lp351
(dp352
g4
g5
sg6
g7
(g8
(I0
tp353
g10
tp354
Rp355
(I1
(I0
I6
tp356
g17
I00
g20
tp357
bsasS'P2726__1__900___2000.png'
p358
(lp359
(dp360
g4
g5
sg6
g7
(g8
(I0
tp361
g10
tp362
Rp363
(I1
(I0
I6
tp364
g17
I00
g20
tp365
bsasS'P1386__1__2700___2000.png'
p366
(lp367
(dp368
g4
g5
sg6
g7
(g8
(I0
tp369
g10
tp370
Rp371
(I1
(I0
I6
tp372
g17
I00
g20
tp373
bsasS'P2771__1__900___1000.png'
p374
(lp375
(dp376
g4
g5
sg6
g7
(g8
(I0
tp377
g10
tp378
Rp379
(I1
(I0
I6
tp380
g17
I00
g20
tp381
bsasS'P0259__1__1250___0.png'
p382
(lp383
(dp384
g4
g5
sg6
g7
(g8
(I0
tp385
g10
tp386
Rp387
(I1
(I0
I6
tp388
g17
I00
g20
tp389
bsasS'P2733__1__1800___500.png'
p390
(lp391
(dp392
g4
g5
sg6
g7
(g8
(I0
tp393
g10
tp394
Rp395
(I1
(I0
I6
tp396
g17
I00
g20
tp397
bsasS'P1242__1__3000___1000.png'
p398
(lp399
(dp400
g4
g5
sg6
g7
(g8
(I0
tp401
g10
tp402
Rp403
(I1
(I0
I6
tp404
g17
I00
g20
tp405
bsasS'P0420__1__620___518.png'
p406
(lp407
(dp408
g4
g5
sg6
g7
(g8
(I0
tp409
g10
tp410
Rp411
(I1
(I0
I6
tp412
g17
I00
g20
tp413
bsasS'P2285__1__2589___1500.png'
p414
(lp415
(dp416
g4
g5
sg6
g7
(g8
(I0
tp417
g10
tp418
Rp419
(I1
(I0
I6
tp420
g17
I00
g20
tp421
bsasS'P1219__1__0___2000.png'
p422
(lp423
(dp424
g4
g5
sg6
g7
(g8
(I0
tp425
g10
tp426
Rp427
(I1
(I0
I6
tp428
g17
I00
g20
tp429
bsasS'P1386__1__2700___1500.png'
p430
(lp431
(dp432
g4
g5
sg6
g7
(g8
(I0
tp433
g10
tp434
Rp435
(I1
(I0
I6
tp436
g17
I00
g20
tp437
bsasS'P2645__1__2700___2000.png'
p438
(lp439
(dp440
g4
g5
sg6
g7
(g8
(I0
tp441
g10
tp442
Rp443
(I1
(I0
I6
tp444
g17
I00
g20
tp445
bsasS'P2709__1__1990___1500.png'
p446
(lp447
(dp448
g4
g5
sg6
g7
(g8
(I0
tp449
g10
tp450
Rp451
(I1
(I0
I6
tp452
g17
I00
g20
tp453
bsasS'P0526__1__0___500.png'
p454
(lp455
(dp456
g4
g5
sg6
g7
(g8
(I0
tp457
g10
tp458
Rp459
(I1
(I0
I6
tp460
g17
I00
g20
tp461
bsasS'P0551__1__312___778.png'
p462
(lp463
(dp464
g4
g5
sg6
g7
(g8
(I0
tp465
g10
tp466
Rp467
(I1
(I0
I6
tp468
g17
I00
g20
tp469
bsasS'P1738__1__900___1000.png'
p470
(lp471
(dp472
g4
g5
sg6
g7
(g8
(I0
tp473
g10
tp474
Rp475
(I1
(I0
I6
tp476
g17
I00
g20
tp477
bsasS'P0411__1__0___0.png'
p478
(lp479
(dp480
g4
g5
sg6
g7
(g8
(I0
tp481
g10
tp482
Rp483
(I1
(I0
I6
tp484
g17
I00
g20
tp485
bsasS'P2701__1__2700___1500.png'
p486
(lp487
(dp488
g4
g5
sg6
g7
(g8
(I0
tp489
g10
tp490
Rp491
(I1
(I0
I6
tp492
g17
I00
g20
tp493
bsasS'P0696__1__539___0.png'
p494
(lp495
(dp496
g4
g5
sg6
g7
(g8
(I0
tp497
g10
tp498
Rp499
(I1
(I0
I6
tp500
g17
I00
g20
tp501
bsasS'P0300__1__414___0.png'
p502
(lp503
(dp504
g4
g5
sg6
g7
(g8
(I0
tp505
g10
tp506
Rp507
(I1
(I0
I6
tp508
g17
I00
g20
tp509
bsasS'P2059__1__0___1508.png'
p510
(lp511
(dp512
g4
g5
sg6
g7
(g8
(I0
tp513
g10
tp514
Rp515
(I1
(I0
I6
tp516
g17
I00
g20
tp517
bsasS'P0704__1__0___500.png'
p518
(lp519
(dp520
g4
g5
sg6
g7
(g8
(I0
tp521
g10
tp522
Rp523
(I1
(I0
I6
tp524
g17
I00
g20
tp525
bsasS'P0897__1__1331___3000.png'
p526
(lp527
(dp528
g4
g5
sg6
g7
(g8
(I0
tp529
g10
tp530
Rp531
(I1
(I0
I6
tp532
g17
I00
g20
tp533
bsasS'P1234__1__1800___0.png'
p534
(lp535
(dp536
g4
g5
sg6
g7
(g8
(I0
tp537
g10
tp538
Rp539
(I1
(I0
I6
tp540
g17
I00
g20
tp541
bsasS'P0696__1__0___1537.png'
p542
(lp543
(dp544
g4
g5
sg6
g7
(g8
(I0
tp545
g10
tp546
Rp547
(I1
(I0
I6
tp548
g17
I00
g20
tp549
bsasS'P0729__1__0___500.png'
p550
(lp551
(dp552
g4
g5
sg6
g7
(g8
(I0
tp553
g10
tp554
Rp555
(I1
(I0
I6
tp556
g17
I00
g20
tp557
bsasS'P1234__1__0___500.png'
p558
(lp559
(dp560
g4
g5
sg6
g7
(g8
(I0
tp561
g10
tp562
Rp563
(I1
(I0
I6
tp564
g17
I00
g20
tp565
bsasS'P0936__1__900___0.png'
p566
(lp567
(dp568
g4
g5
sg6
g7
(g8
(I0
tp569
g10
tp570
Rp571
(I1
(I0
I6
tp572
g17
I00
g20
tp573
bsasS'P0864__1__1800___500.png'
p574
(lp575
(dp576
g4
g5
sg6
g7
(g8
(I0
tp577
g10
tp578
Rp579
(I1
(I0
I6
tp580
g17
I00
g20
tp581
bsasS'P0476__1__146___0.png'
p582
(lp583
(dp584
g4
g5
sg6
g7
(g8
(I0
tp585
g10
tp586
Rp587
(I1
(I0
I6
tp588
g17
I00
g20
tp589
bsasS'P2733__1__1827___1500.png'
p590
(lp591
(dp592
g4
g5
sg6
g7
(g8
(I0
tp593
g10
tp594
Rp595
(I1
(I0
I6
tp596
g17
I00
g20
tp597
bsasS'P0837__1__0___2000.png'
p598
(lp599
(dp600
g4
g5
sg6
g7
(g8
(I0
tp601
g10
tp602
Rp603
(I1
(I0
I6
tp604
g17
I00
g20
tp605
bsasS'P0696__1__0___1500.png'
p606
(lp607
(dp608
g4
g5
sg6
g7
(g8
(I0
tp609
g10
tp610
Rp611
(I1
(I0
I6
tp612
g17
I00
g20
tp613
bsasS'P0259__1__0___500.png'
p614
(lp615
(dp616
g4
g5
sg6
g7
(g8
(I0
tp617
g10
tp618
Rp619
(I1
(I0
I6
tp620
g17
I00
g20
tp621
bsasS'P1273__1__1800___3000.png'
p622
(lp623
(dp624
g4
g5
sg6
g7
(g8
(I0
tp625
g10
tp626
Rp627
(I1
(I0
I6
tp628
g17
I00
g20
tp629
bsasS'P2794__1__0___3000.png'
p630
(lp631
(dp632
g4
g5
sg6
g7
(g8
(I0
tp633
g10
tp634
Rp635
(I1
(I0
I6
tp636
g17
I00
g20
tp637
bsasS'P1246__1__2700___2500.png'
p638
(lp639
(dp640
g4
g5
sg6
g7
(g8
(I0
tp641
g10
tp642
Rp643
(I1
(I0
I6
tp644
g17
I00
g20
tp645
bsasS'P0261__1__0___498.png'
p646
(lp647
(dp648
g4
g5
sg6
g7
(g8
(I0
tp649
g10
tp650
Rp651
(I1
(I0
I6
tp652
g17
I00
g20
tp653
bsasS'P0837__1__684___500.png'
p654
(lp655
(dp656
g4
g5
sg6
g7
(g8
(I0
tp657
g10
tp658
Rp659
(I1
(I0
I6
tp660
g17
I00
g20
tp661
bsasS'P0887__1__0___2000.png'
p662
(lp663
(dp664
g4
g5
sg6
g7
(g8
(I0
tp665
g10
tp666
Rp667
(I1
(I0
I6
tp668
g17
I00
g20
tp669
bsasS'P1225__1__2700___1500.png'
p670
(lp671
(dp672
g4
g5
sg6
g7
(g8
(I0
tp673
g10
tp674
Rp675
(I1
(I0
I6
tp676
g17
I00
g20
tp677
bsasS'P0348__1__0___0.png'
p678
(lp679
(dp680
g4
g5
sg6
g7
(g8
(I0
tp681
g10
tp682
Rp683
(I1
(I0
I6
tp684
g17
I00
g20
tp685
bsasS'P1342__1__900___2000.png'
p686
(lp687
(dp688
g4
g5
sg6
g7
(g8
(I0
tp689
g10
tp690
Rp691
(I1
(I0
I6
tp692
g17
I00
g20
tp693
bsasS'P1315__1__3000___1500.png'
p694
(lp695
(dp696
g4
g5
sg6
g7
(g8
(I0
tp697
g10
tp698
Rp699
(I1
(I0
I6
tp700
g17
I00
g20
tp701
bsasS'P1738__1__900___1500.png'
p702
(lp703
(dp704
g4
g5
sg6
g7
(g8
(I0
tp705
g10
tp706
Rp707
(I1
(I0
I6
tp708
g17
I00
g20
tp709
bsasS'P0763__1__0___0.png'
p710
(lp711
(dp712
g4
g5
sg6
g7
(g8
(I0
tp713
g10
tp714
Rp715
(I1
(I0
I6
tp716
g17
I00
g20
tp717
bsasS'P1278__1__3600___500.png'
p718
(lp719
(dp720
g4
g5
sg6
g7
(g8
(I0
tp721
g10
tp722
Rp723
(I1
(I0
I6
tp724
g17
I00
g20
tp725
bsasS'P0683__1__900___1500.png'
p726
(lp727
(dp728
g4
g5
sg6
g7
(g8
(I0
tp729
g10
tp730
Rp731
(I1
(I0
I6
tp732
g17
I00
g20
tp733
bsasS'P1314__1__900___500.png'
p734
(lp735
(dp736
g4
g5
sg6
g7
(g8
(I0
tp737
g10
tp738
Rp739
(I1
(I0
I6
tp740
g17
I00
g20
tp741
bsasS'P0259__1__1250___1500.png'
p742
(lp743
(dp744
g4
g5
sg6
g7
(g8
(I0
tp745
g10
tp746
Rp747
(I1
(I0
I6
tp748
g17
I00
g20
tp749
bsasS'P0704__1__900___836.png'
p750
(lp751
(dp752
g4
g5
sg6
g7
(g8
(I0
tp753
g10
tp754
Rp755
(I1
(I0
I6
tp756
g17
I00
g20
tp757
bsasS'P2758__1__1800___3500.png'
p758
(lp759
(dp760
g4
g5
sg6
g7
(g8
(I0
tp761
g10
tp762
Rp763
(I1
(I0
I6
tp764
g17
I00
g20
tp765
bsasS'P2789__1__900___500.png'
p766
(lp767
(dp768
g4
g5
sg6
g7
(g8
(I0
tp769
g10
tp770
Rp771
(I1
(I0
I6
tp772
g17
I00
g20
tp773
bsasS'P1314__1__1800___2500.png'
p774
(lp775
(dp776
g4
g5
sg6
g7
(g8
(I0
tp777
g10
tp778
Rp779
(I1
(I0
I6
tp780
g17
I00
g20
tp781
bsasS'P1075__1__0___2870.png'
p782
(lp783
(dp784
g4
g5
sg6
g7
(g8
(I0
tp785
g10
tp786
Rp787
(I1
(I0
I6
tp788
g17
I00
g20
tp789
bsasS'P2789__1__900___3897.png'
p790
(lp791
(dp792
g4
g5
sg6
g7
(g8
(I0
tp793
g10
tp794
Rp795
(I1
(I0
I6
tp796
g17
I00
g20
tp797
bsasS'P1356__1__0___2000.png'
p798
(lp799
(dp800
g4
g5
sg6
g7
(g8
(I0
tp801
g10
tp802
Rp803
(I1
(I0
I6
tp804
g17
I00
g20
tp805
bsasS'P0858__1__900___500.png'
p806
(lp807
(dp808
g4
g5
sg6
g7
(g8
(I0
tp809
g10
tp810
Rp811
(I1
(I0
I6
tp812
g17
I00
g20
tp813
bsasS'P0262__1__0___1000.png'
p814
(lp815
(dp816
g4
g5
sg6
g7
(g8
(I0
tp817
g10
tp818
Rp819
(I1
(I0
I6
tp820
g17
I00
g20
tp821
bsasS'P0837__1__0___500.png'
p822
(lp823
(dp824
g4
g5
sg6
g7
(g8
(I0
tp825
g10
tp826
Rp827
(I1
(I0
I6
tp828
g17
I00
g20
tp829
bsasS'P0331__1__1478___1000.png'
p830
(lp831
(dp832
g4
g5
sg6
g7
(g8
(I0
tp833
g10
tp834
Rp835
(I1
(I0
I6
tp836
g17
I00
g20
tp837
bsasS'P1386__1__0___500.png'
p838
(lp839
(dp840
g4
g5
sg6
g7
(g8
(I0
tp841
g10
tp842
Rp843
(I1
(I0
I6
tp844
g17
I00
g20
tp845
bsasS'P2678__1__3225___2000.png'
p846
(lp847
(dp848
g4
g5
sg6
g7
(g8
(I0
tp849
g10
tp850
Rp851
(I1
(I0
I6
tp852
g17
I00
g20
tp853
bsasS'P0795__1__776___500.png'
p854
(lp855
(dp856
g4
g5
sg6
g7
(g8
(I0
tp857
g10
tp858
Rp859
(I1
(I0
I6
tp860
g17
I00
g20
tp861
bsasS'P0259__1__0___1669.png'
p862
(lp863
(dp864
g4
g5
sg6
g7
(g8
(I0
tp865
g10
tp866
Rp867
(I1
(I0
I6
tp868
g17
I00
g20
tp869
bsasS'P0300__1__414___239.png'
p870
(lp871
(dp872
g4
g5
sg6
g7
(g8
(I0
tp873
g10
tp874
Rp875
(I1
(I0
I6
tp876
g17
I00
g20
tp877
bsasS'P1266__1__0___1500.png'
p878
(lp879
(dp880
g4
g5
sg6
g7
(g8
(I0
tp881
g10
tp882
Rp883
(I1
(I0
I6
tp884
g17
I00
g20
tp885
bsasS'P1225__1__2700___1000.png'
p886
(lp887
(dp888
g4
g5
sg6
g7
(g8
(I0
tp889
g10
tp890
Rp891
(I1
(I0
I6
tp892
g17
I00
g20
tp893
bsasS'P0839__1__0___1500.png'
p894
(lp895
(dp896
g4
g5
sg6
g7
(g8
(I0
tp897
g10
tp898
Rp899
(I1
(I0
I6
tp900
g17
I00
g20
tp901
bsasS'P1275__1__900___2500.png'
p902
(lp903
(dp904
g4
g5
sg6
g7
(g8
(I0
tp905
g10
tp906
Rp907
(I1
(I0
I6
tp908
g17
I00
g20
tp909
bsasS'P2758__1__5400___1500.png'
p910
(lp911
(dp912
g4
g5
sg6
g7
(g8
(I0
tp913
g10
tp914
Rp915
(I1
(I0
I6
tp916
g17
I00
g20
tp917
bsasS'P0476__1__0___0.png'
p918
(lp919
(dp920
g4
g5
sg6
g7
(g8
(I0
tp921
g10
tp922
Rp923
(I1
(I0
I6
tp924
g17
I00
g20
tp925
bsasS'P0977__1__1053___1500.png'
p926
(lp927
(dp928
g4
g5
sg6
g7
(g8
(I0
tp929
g10
tp930
Rp931
(I1
(I0
I6
tp932
g17
I00
g20
tp933
bsasS'P1342__1__1800___2000.png'
p934
(lp935
(dp936
g4
g5
sg6
g7
(g8
(I0
tp937
g10
tp938
Rp939
(I1
(I0
I6
tp940
g17
I00
g20
tp941
bsasS'P0715__1__0___500.png'
p942
(lp943
(dp944
g4
g5
sg6
g7
(g8
(I0
tp945
g10
tp946
Rp947
(I1
(I0
I6
tp948
g17
I00
g20
tp949
bsasS'P2771__1__1497___500.png'
p950
(lp951
(dp952
g4
g5
sg6
g7
(g8
(I0
tp953
g10
tp954
Rp955
(I1
(I0
I6
tp956
g17
I00
g20
tp957
bsasS'P2701__1__1800___500.png'
p958
(lp959
(dp960
g4
g5
sg6
g7
(g8
(I0
tp961
g10
tp962
Rp963
(I1
(I0
I6
tp964
g17
I00
g20
tp965
bsasS'P0353__1__0___597.png'
p966
(lp967
(dp968
g4
g5
sg6
g7
(g8
(I0
tp969
g10
tp970
Rp971
(I1
(I0
I6
tp972
g17
I00
g20
tp973
bsasS'P0897__1__900___1500.png'
p974
(lp975
(dp976
g4
g5
sg6
g7
(g8
(I0
tp977
g10
tp978
Rp979
(I1
(I0
I6
tp980
g17
I00
g20
tp981
bsasS'P0838__1__306___1065.png'
p982
(lp983
(dp984
g4
g5
sg6
g7
(g8
(I0
tp985
g10
tp986
Rp987
(I1
(I0
I6
tp988
g17
I00
g20
tp989
bsasS'P0789__1__649___492.png'
p990
(lp991
(dp992
g4
g5
sg6
g7
(g8
(I0
tp993
g10
tp994
Rp995
(I1
(I0
I6
tp996
g17
I00
g20
tp997
bsasS'P0837__1__684___0.png'
p998
(lp999
(dp1000
g4
g5
sg6
g7
(g8
(I0
tp1001
g10
tp1002
Rp1003
(I1
(I0
I6
tp1004
g17
I00
g20
tp1005
bsasS'P0259__1__900___0.png'
p1006
(lp1007
(dp1008
g4
g5
sg6
g7
(g8
(I0
tp1009
g10
tp1010
Rp1011
(I1
(I0
I6
tp1012
g17
I00
g20
tp1013
bsasS'P0526__1__1302___0.png'
p1014
(lp1015
(dp1016
g4
g5
sg6
g7
(g8
(I0
tp1017
g10
tp1018
Rp1019
(I1
(I0
I6
tp1020
g17
I00
g20
tp1021
bsasS'P1332__1__3000___500.png'
p1022
(lp1023
(dp1024
g4
g5
sg6
g7
(g8
(I0
tp1025
g10
tp1026
Rp1027
(I1
(I0
I6
tp1028
g17
I00
g20
tp1029
bsasS'P0795__1__776___1837.png'
p1030
(lp1031
(dp1032
g4
g5
sg6
g7
(g8
(I0
tp1033
g10
tp1034
Rp1035
(I1
(I0
I6
tp1036
g17
I00
g20
tp1037
bsasS'P0543__1__0___240.png'
p1038
(lp1039
(dp1040
g4
g5
sg6
g7
(g8
(I0
tp1041
g10
tp1042
Rp1043
(I1
(I0
I6
tp1044
g17
I00
g20
tp1045
bsasS'P1278__1__1800___500.png'
p1046
(lp1047
(dp1048
g4
g5
sg6
g7
(g8
(I0
tp1049
g10
tp1050
Rp1051
(I1
(I0
I6
tp1052
g17
I00
g20
tp1053
bsasS'P2794__1__2700___3000.png'
p1054
(lp1055
(dp1056
g4
g5
sg6
g7
(g8
(I0
tp1057
g10
tp1058
Rp1059
(I1
(I0
I6
tp1060
g17
I00
g20
tp1061
bsasS'P0838__1__0___500.png'
p1062
(lp1063
(dp1064
g4
g5
sg6
g7
(g8
(I0
tp1065
g10
tp1066
Rp1067
(I1
(I0
I6
tp1068
g17
I00
g20
tp1069
bsasS'P0128__1__0___1000.png'
p1070
(lp1071
(dp1072
g4
g5
sg6
g7
(g8
(I0
tp1073
g10
tp1074
Rp1075
(I1
(I0
I6
tp1076
g17
I00
g20
tp1077
bsasS'P1429__1__2165___2000.png'
p1078
(lp1079
(dp1080
g4
g5
sg6
g7
(g8
(I0
tp1081
g10
tp1082
Rp1083
(I1
(I0
I6
tp1084
g17
I00
g20
tp1085
bsasS'P0801__1__2424___500.png'
p1086
(lp1087
(dp1088
g4
g5
sg6
g7
(g8
(I0
tp1089
g10
tp1090
Rp1091
(I1
(I0
I6
tp1092
g17
I00
g20
tp1093
bsasS'P1234__1__900___500.png'
p1094
(lp1095
(dp1096
g4
g5
sg6
g7
(g8
(I0
tp1097
g10
tp1098
Rp1099
(I1
(I0
I6
tp1100
g17
I00
g20
tp1101
bsasS'P0725__1__658___0.png'
p1102
(lp1103
(dp1104
g4
g5
sg6
g7
(g8
(I0
tp1105
g10
tp1106
Rp1107
(I1
(I0
I6
tp1108
g17
I00
g20
tp1109
bsasS'P2733__1__1800___1500.png'
p1110
(lp1111
(dp1112
g4
g5
sg6
g7
(g8
(I0
tp1113
g10
tp1114
Rp1115
(I1
(I0
I6
tp1116
g17
I00
g20
tp1117
bsasS'P1860__1__956___0.png'
p1118
(lp1119
(dp1120
g4
g5
sg6
g7
(g8
(I0
tp1121
g10
tp1122
Rp1123
(I1
(I0
I6
tp1124
g17
I00
g20
tp1125
bsasS'P2794__1__2700___0.png'
p1126
(lp1127
(dp1128
g4
g5
sg6
g7
(g8
(I0
tp1129
g10
tp1130
Rp1131
(I1
(I0
I6
tp1132
g17
I00
g20
tp1133
bsasS'P2678__1__900___1500.png'
p1134
(lp1135
(dp1136
g4
g5
sg6
g7
(g8
(I0
tp1137
g10
tp1138
Rp1139
(I1
(I0
I6
tp1140
g17
I00
g20
tp1141
bsasS'P2726__1__900___1000.png'
p1142
(lp1143
(dp1144
g4
g5
sg6
g7
(g8
(I0
tp1145
g10
tp1146
Rp1147
(I1
(I0
I6
tp1148
g17
I00
g20
tp1149
bsasS'P1429__1__0___500.png'
p1150
(lp1151
(dp1152
g4
g5
sg6
g7
(g8
(I0
tp1153
g10
tp1154
Rp1155
(I1
(I0
I6
tp1156
g17
I00
g20
tp1157
bsasS'P2794__1__0___3841.png'
p1158
(lp1159
(dp1160
g4
g5
sg6
g7
(g8
(I0
tp1161
g10
tp1162
Rp1163
(I1
(I0
I6
tp1164
g17
I00
g20
tp1165
bsasS'P0476__1__146___629.png'
p1166
(lp1167
(dp1168
g4
g5
sg6
g7
(g8
(I0
tp1169
g10
tp1170
Rp1171
(I1
(I0
I6
tp1172
g17
I00
g20
tp1173
bsasS'P0262__1__1284___1838.png'
p1174
(lp1175
(dp1176
g4
g5
sg6
g7
(g8
(I0
tp1177
g10
tp1178
Rp1179
(I1
(I0
I6
tp1180
g17
I00
g20
tp1181
bsasS'P0259__1__0___1000.png'
p1182
(lp1183
(dp1184
g4
g5
sg6
g7
(g8
(I0
tp1185
g10
tp1186
Rp1187
(I1
(I0
I6
tp1188
g17
I00
g20
tp1189
bsasS'P1090__1__900___0.png'
p1190
(lp1191
(dp1192
g4
g5
sg6
g7
(g8
(I0
tp1193
g10
tp1194
Rp1195
(I1
(I0
I6
tp1196
g17
I00
g20
tp1197
bsasS'P2645__1__2700___1000.png'
p1198
(lp1199
(dp1200
g4
g5
sg6
g7
(g8
(I0
tp1201
g10
tp1202
Rp1203
(I1
(I0
I6
tp1204
g17
I00
g20
tp1205
bsasS'P0704__1__0___0.png'
p1206
(lp1207
(dp1208
g4
g5
sg6
g7
(g8
(I0
tp1209
g10
tp1210
Rp1211
(I1
(I0
I6
tp1212
g17
I00
g20
tp1213
bsasS'P2059__1__0___1500.png'
p1214
(lp1215
(dp1216
g4
g5
sg6
g7
(g8
(I0
tp1217
g10
tp1218
Rp1219
(I1
(I0
I6
tp1220
g17
I00
g20
tp1221
bsasS'P0706__1__111___0.png'
p1222
(lp1223
(dp1224
g4
g5
sg6
g7
(g8
(I0
tp1225
g10
tp1226
Rp1227
(I1
(I0
I6
tp1228
g17
I00
g20
tp1229
bsasS'P1266__1__0___1000.png'
p1230
(lp1231
(dp1232
g4
g5
sg6
g7
(g8
(I0
tp1233
g10
tp1234
Rp1235
(I1
(I0
I6
tp1236
g17
I00
g20
tp1237
bsasS'P0019__1__5573___3127.png'
p1238
(lp1239
(dp1240
g4
g5
sg6
g7
(g8
(I0
tp1241
g10
tp1242
Rp1243
(I1
(I0
I6
tp1244
g17
I00
g20
tp1245
bsasS'P2709__1__0___1814.png'
p1246
(lp1247
(dp1248
g4
g5
sg6
g7
(g8
(I0
tp1249
g10
tp1250
Rp1251
(I1
(I0
I6
tp1252
g17
I00
g20
tp1253
bsasS'P2645__1__2700___2500.png'
p1254
(lp1255
(dp1256
g4
g5
sg6
g7
(g8
(I0
tp1257
g10
tp1258
Rp1259
(I1
(I0
I6
tp1260
g17
I00
g20
tp1261
bsasS'P0989__1__98___500.png'
p1262
(lp1263
(dp1264
g4
g5
sg6
g7
(g8
(I0
tp1265
g10
tp1266
Rp1267
(I1
(I0
I6
tp1268
g17
I00
g20
tp1269
bsasS'P0801__1__0___500.png'
p1270
(lp1271
(dp1272
g4
g5
sg6
g7
(g8
(I0
tp1273
g10
tp1274
Rp1275
(I1
(I0
I6
tp1276
g17
I00
g20
tp1277
bsasS'P0706__1__111___500.png'
p1278
(lp1279
(dp1280
g4
g5
sg6
g7
(g8
(I0
tp1281
g10
tp1282
Rp1283
(I1
(I0
I6
tp1284
g17
I00
g20
tp1285
bsasS'P2645__1__1800___500.png'
p1286
(lp1287
(dp1288
g4
g5
sg6
g7
(g8
(I0
tp1289
g10
tp1290
Rp1291
(I1
(I0
I6
tp1292
g17
I00
g20
tp1293
bsasS'P1738__1__0___0.png'
p1294
(lp1295
(dp1296
g4
g5
sg6
g7
(g8
(I0
tp1297
g10
tp1298
Rp1299
(I1
(I0
I6
tp1300
g17
I00
g20
tp1301
bsasS'P0897__1__900___2500.png'
p1302
(lp1303
(dp1304
g4
g5
sg6
g7
(g8
(I0
tp1305
g10
tp1306
Rp1307
(I1
(I0
I6
tp1308
g17
I00
g20
tp1309
bsasS'P0887__1__900___1000.png'
p1310
(lp1311
(dp1312
g4
g5
sg6
g7
(g8
(I0
tp1313
g10
tp1314
Rp1315
(I1
(I0
I6
tp1316
g17
I00
g20
tp1317
bsasS'P1275__1__3000___1500.png'
p1318
(lp1319
(dp1320
g4
g5
sg6
g7
(g8
(I0
tp1321
g10
tp1322
Rp1323
(I1
(I0
I6
tp1324
g17
I00
g20
tp1325
bsasS'P1314__1__900___1000.png'
p1326
(lp1327
(dp1328
g4
g5
sg6
g7
(g8
(I0
tp1329
g10
tp1330
Rp1331
(I1
(I0
I6
tp1332
g17
I00
g20
tp1333
bsasS'P1242__1__1800___0.png'
p1334
(lp1335
(dp1336
g4
g5
sg6
g7
(g8
(I0
tp1337
g10
tp1338
Rp1339
(I1
(I0
I6
tp1340
g17
I00
g20
tp1341
bsasS'P0331__1__900___1000.png'
p1342
(lp1343
(dp1344
g4
g5
sg6
g7
(g8
(I0
tp1345
g10
tp1346
Rp1347
(I1
(I0
I6
tp1348
g17
I00
g20
tp1349
bsasS'P1860__1__900___1000.png'
p1350
(lp1351
(dp1352
g4
g5
sg6
g7
(g8
(I0
tp1353
g10
tp1354
Rp1355
(I1
(I0
I6
tp1356
g17
I00
g20
tp1357
bsasS'P2733__1__1827___2012.png'
p1358
(lp1359
(dp1360
g4
g5
sg6
g7
(g8
(I0
tp1361
g10
tp1362
Rp1363
(I1
(I0
I6
tp1364
g17
I00
g20
tp1365
bsasS'P0704__1__900___500.png'
p1366
(lp1367
(dp1368
g4
g5
sg6
g7
(g8
(I0
tp1369
g10
tp1370
Rp1371
(I1
(I1
I6
tp1372
g17
I00
S'\x00\x00\x00\xc0\xc7\xce\x83@\x00\x00\x00\xa0\x8aAu@\x00\x00\x00\x00\x80\xa3\x0f@\x00\x00\x00\xa0\x80\xf1B@\x00\x00\x00\xc0k\xaf=\xc0\x00\x00\x00\xc0\xbe\xb9\xec?'
p1373
tp1374
bsasS'P2726__1__900___0.png'
p1375
(lp1376
(dp1377
g4
g5
sg6
g7
(g8
(I0
tp1378
g10
tp1379
Rp1380
(I1
(I0
I6
tp1381
g17
I00
g20
tp1382
bsasS'P0789__1__0___492.png'
p1383
(lp1384
(dp1385
g4
g5
sg6
g7
(g8
(I0
tp1386
g10
tp1387
Rp1388
(I1
(I0
I6
tp1389
g17
I00
g20
tp1390
bsasS'P0838__1__0___0.png'
p1391
(lp1392
(dp1393
g4
g5
sg6
g7
(g8
(I0
tp1394
g10
tp1395
Rp1396
(I1
(I0
I6
tp1397
g17
I00
g20
tp1398
bsasS'P2645__1__3605___2500.png'
p1399
(lp1400
(dp1401
g4
g5
sg6
g7
(g8
(I0
tp1402
g10
tp1403
Rp1404
(I1
(I0
I6
tp1405
g17
I00
g20
tp1406
bsasS'P2678__1__1800___500.png'
p1407
(lp1408
(dp1409
g4
g5
sg6
g7
(g8
(I0
tp1410
g10
tp1411
Rp1412
(I1
(I0
I6
tp1413
g17
I00
g20
tp1414
bsasS'P1246__1__3000___1500.png'
p1415
(lp1416
(dp1417
g4
g5
sg6
g7
(g8
(I0
tp1418
g10
tp1419
Rp1420
(I1
(I0
I6
tp1421
g17
I00
g20
tp1422
bsasS'P0837__1__684___1000.png'
p1423
(lp1424
(dp1425
g4
g5
sg6
g7
(g8
(I0
tp1426
g10
tp1427
Rp1428
(I1
(I0
I6
tp1429
g17
I00
g20
tp1430
bsasS'P0897__1__1331___1000.png'
p1431
(lp1432
(dp1433
g4
g5
sg6
g7
(g8
(I0
tp1434
g10
tp1435
Rp1436
(I1
(I0
I6
tp1437
g17
I00
g20
tp1438
bsasS'P0837__1__684___2000.png'
p1439
(lp1440
(dp1441
g4
g5
sg6
g7
(g8
(I0
tp1442
g10
tp1443
Rp1444
(I1
(I0
I6
tp1445
g17
I00
g20
tp1446
bsasS'P0128__1__0___500.png'
p1447
(lp1448
(dp1449
g4
g5
sg6
g7
(g8
(I0
tp1450
g10
tp1451
Rp1452
(I1
(I0
I6
tp1453
g17
I00
g20
tp1454
bsasS'P1275__1__3000___3400.png'
p1455
(lp1456
(dp1457
g4
g5
sg6
g7
(g8
(I0
tp1458
g10
tp1459
Rp1460
(I1
(I0
I6
tp1461
g17
I00
g20
tp1462
bsasS'P1066__1__699___500.png'
p1463
(lp1464
(dp1465
g4
g5
sg6
g7
(g8
(I0
tp1466
g10
tp1467
Rp1468
(I1
(I0
I6
tp1469
g17
I00
g20
tp1470
bsasS'P1278__1__2700___500.png'
p1471
(lp1472
(dp1473
g4
g5
sg6
g7
(g8
(I0
tp1474
g10
tp1475
Rp1476
(I1
(I0
I6
tp1477
g17
I00
g20
tp1478
bsasS'P0897__1__900___1000.png'
p1479
(lp1480
(dp1481
g4
g5
sg6
g7
(g8
(I0
tp1482
g10
tp1483
Rp1484
(I1
(I0
I6
tp1485
g17
I00
g20
tp1486
bsasS'P2758__1__3600___3000.png'
p1487
(lp1488
(dp1489
g4
g5
sg6
g7
(g8
(I0
tp1490
g10
tp1491
Rp1492
(I1
(I0
I6
tp1493
g17
I00
g20
tp1494
bsasS'P2429__1__0___500.png'
p1495
(lp1496
(dp1497
g4
g5
sg6
g7
(g8
(I0
tp1498
g10
tp1499
Rp1500
(I1
(I0
I6
tp1501
g17
I00
g20
tp1502
bsasS'P2733__1__1800___0.png'
p1503
(lp1504
(dp1505
g4
g5
sg6
g7
(g8
(I0
tp1506
g10
tp1507
Rp1508
(I1
(I0
I6
tp1509
g17
I00
g20
tp1510
bsasS'P0977__1__0___1617.png'
p1511
(lp1512
(dp1513
g4
g5
sg6
g7
(g8
(I0
tp1514
g10
tp1515
Rp1516
(I1
(I0
I6
tp1517
g17
I00
g20
tp1518
bsasS'P0262__1__900___1838.png'
p1519
(lp1520
(dp1521
g4
g5
sg6
g7
(g8
(I0
tp1522
g10
tp1523
Rp1524
(I1
(I0
I6
tp1525
g17
I00
g20
tp1526
bsasS'P0838__1__306___1000.png'
p1527
(lp1528
(dp1529
g4
g5
sg6
g7
(g8
(I0
tp1530
g10
tp1531
Rp1532
(I1
(I0
I6
tp1533
g17
I00
g20
tp1534
bsasS'P0936__1__0___0.png'
p1535
(lp1536
(dp1537
g4
g5
sg6
g7
(g8
(I0
tp1538
g10
tp1539
Rp1540
(I1
(I0
I6
tp1541
g17
I00
g20
tp1542
bsasS'P0989__1__98___1021.png'
p1543
(lp1544
(dp1545
g4
g5
sg6
g7
(g8
(I0
tp1546
g10
tp1547
Rp1548
(I1
(I0
I6
tp1549
g17
I00
g20
tp1550
bsasS'P2789__1__2700___3500.png'
p1551
(lp1552
(dp1553
g4
g5
sg6
g7
(g8
(I0
tp1554
g10
tp1555
Rp1556
(I1
(I0
I6
tp1557
g17
I00
g20
tp1558
bsasS'P1268__1__1800___2000.png'
p1559
(lp1560
(dp1561
g4
g5
sg6
g7
(g8
(I0
tp1562
g10
tp1563
Rp1564
(I1
(I0
I6
tp1565
g17
I00
g20
tp1566
bsasS'P0799__1__0___500.png'
p1567
(lp1568
(dp1569
g4
g5
sg6
g7
(g8
(I0
tp1570
g10
tp1571
Rp1572
(I1
(I0
I6
tp1573
g17
I00
g20
tp1574
bsasS'P0259__1__0___1500.png'
p1575
(lp1576
(dp1577
g4
g5
sg6
g7
(g8
(I0
tp1578
g10
tp1579
Rp1580
(I1
(I0
I6
tp1581
g17
I00
g20
tp1582
bsasS'P1332__1__1800___2000.png'
p1583
(lp1584
(dp1585
g4
g5
sg6
g7
(g8
(I0
tp1586
g10
tp1587
Rp1588
(I1
(I0
I6
tp1589
g17
I00
g20
tp1590
bsasS'P0420__1__0___500.png'
p1591
(lp1592
(dp1593
g4
g5
sg6
g7
(g8
(I0
tp1594
g10
tp1595
Rp1596
(I1
(I0
I6
tp1597
g17
I00
g20
tp1598
bsasS'P0749__1__0___224.png'
p1599
(lp1600
(dp1601
g4
g5
sg6
g7
(g8
(I0
tp1602
g10
tp1603
Rp1604
(I1
(I0
I6
tp1605
g17
I00
g20
tp1606
bsasS'P0749__1__439___0.png'
p1607
(lp1608
(dp1609
g4
g5
sg6
g7
(g8
(I0
tp1610
g10
tp1611
Rp1612
(I1
(I0
I6
tp1613
g17
I00
g20
tp1614
bsasS'P0336__1__900___805.png'
p1615
(lp1616
(dp1617
g4
g5
sg6
g7
(g8
(I0
tp1618
g10
tp1619
Rp1620
(I1
(I0
I6
tp1621
g17
I00
g20
tp1622
bsasS'P1860__1__900___500.png'
p1623
(lp1624
(dp1625
g4
g5
sg6
g7
(g8
(I0
tp1626
g10
tp1627
Rp1628
(I1
(I0
I6
tp1629
g17
I00
g20
tp1630
bsasS'P0564__1__0___488.png'
p1631
(lp1632
(dp1633
g4
g5
sg6
g7
(g8
(I0
tp1634
g10
tp1635
Rp1636
(I1
(I0
I6
tp1637
g17
I00
g20
tp1638
bsasS'P0262__1__0___0.png'
p1639
(lp1640
(dp1641
g4
g5
sg6
g7
(g8
(I0
tp1642
g10
tp1643
Rp1644
(I1
(I0
I6
tp1645
g17
I00
g20
tp1646
bsasS'P0262__1__1284___500.png'
p1647
(lp1648
(dp1649
g4
g5
sg6
g7
(g8
(I0
tp1650
g10
tp1651
Rp1652
(I1
(I0
I6
tp1653
g17
I00
g20
tp1654
bsasS'P0763__1__658___0.png'
p1655
(lp1656
(dp1657
g4
g5
sg6
g7
(g8
(I0
tp1658
g10
tp1659
Rp1660
(I1
(I0
I6
tp1661
g17
I00
g20
tp1662
bsasS'P2709__1__1800___1000.png'
p1663
(lp1664
(dp1665
g4
g5
sg6
g7
(g8
(I0
tp1666
g10
tp1667
Rp1668
(I1
(I0
I6
tp1669
g17
I00
g20
tp1670
bsasS'P0336__1__1800___500.png'
p1671
(lp1672
(dp1673
g4
g5
sg6
g7
(g8
(I0
tp1674
g10
tp1675
Rp1676
(I1
(I0
I6
tp1677
g17
I00
g20
tp1678
bsasS'P0887__1__900___0.png'
p1679
(lp1680
(dp1681
g4
g5
sg6
g7
(g8
(I0
tp1682
g10
tp1683
Rp1684
(I1
(I0
I6
tp1685
g17
I00
g20
tp1686
bsasS'P2789__1__3654___2000.png'
p1687
(lp1688
(dp1689
g4
g5
sg6
g7
(g8
(I0
tp1690
g10
tp1691
Rp1692
(I1
(I0
I6
tp1693
g17
I00
g20
tp1694
bsasS'P0420__1__0___0.png'
p1695
(lp1696
(dp1697
g4
g5
sg6
g7
(g8
(I0
tp1698
g10
tp1699
Rp1700
(I1
(I0
I6
tp1701
g17
I00
g20
tp1702
bsasS'P0261__1__0___0.png'
p1703
(lp1704
(dp1705
g4
g5
sg6
g7
(g8
(I0
tp1706
g10
tp1707
Rp1708
(I1
(I0
I6
tp1709
g17
I00
g20
tp1710
bsasS'P2701__1__1800___1000.png'
p1711
(lp1712
(dp1713
g4
g5
sg6
g7
(g8
(I0
tp1714
g10
tp1715
Rp1716
(I1
(I0
I6
tp1717
g17
I00
g20
tp1718
bsasS'P1738__1__0___500.png'
p1719
(lp1720
(dp1721
g4
g5
sg6
g7
(g8
(I0
tp1722
g10
tp1723
Rp1724
(I1
(I0
I6
tp1725
g17
I00
g20
tp1726
bsasS'P2726__1__900___1500.png'
p1727
(lp1728
(dp1729
g4
g5
sg6
g7
(g8
(I0
tp1730
g10
tp1731
Rp1732
(I1
(I0
I6
tp1733
g17
I00
g20
tp1734
bsasS'P2645__1__1800___2000.png'
p1735
(lp1736
(dp1737
g4
g5
sg6
g7
(g8
(I0
tp1738
g10
tp1739
Rp1740
(I1
(I0
I6
tp1741
g17
I00
g20
tp1742
bsasS'P2701__1__2950___1000.png'
p1743
(lp1744
(dp1745
g4
g5
sg6
g7
(g8
(I0
tp1746
g10
tp1747
Rp1748
(I1
(I0
I6
tp1749
g17
I00
g20
tp1750
bsasS'P1213__1__900___3000.png'
p1751
(lp1752
(dp1753
g4
g5
sg6
g7
(g8
(I0
tp1754
g10
tp1755
Rp1756
(I1
(I0
I6
tp1757
g17
I00
g20
tp1758
bsasS'P2286__1__900___1000.png'
p1759
(lp1760
(dp1761
g4
g5
sg6
g7
(g8
(I0
tp1762
g10
tp1763
Rp1764
(I1
(I0
I6
tp1765
g17
I00
g20
tp1766
bsasS'P0110__1__900___500.png'
p1767
(lp1768
(dp1769
g4
g5
sg6
g7
(g8
(I0
tp1770
g10
tp1771
Rp1772
(I1
(I0
I6
tp1773
g17
I00
g20
tp1774
bsasS'P1332__1__0___0.png'
p1775
(lp1776
(dp1777
g4
g5
sg6
g7
(g8
(I0
tp1778
g10
tp1779
Rp1780
(I1
(I0
I6
tp1781
g17
I00
g20
tp1782
bsasS'P0110__1__1564___1000.png'
p1783
(lp1784
(dp1785
g4
g5
sg6
g7
(g8
(I0
tp1786
g10
tp1787
Rp1788
(I1
(I0
I6
tp1789
g17
I00
g20
tp1790
bsasS'P0550__1__410___0.png'
p1791
(lp1792
(dp1793
g4
g5
sg6
g7
(g8
(I0
tp1794
g10
tp1795
Rp1796
(I1
(I0
I6
tp1797
g17
I00
g20
tp1798
bsasS'P0964__1__0___500.png'
p1799
(lp1800
(dp1801
g4
g5
sg6
g7
(g8
(I0
tp1802
g10
tp1803
Rp1804
(I1
(I0
I6
tp1805
g17
I00
g20
tp1806
bsasS'P0579__1__0___522.png'
p1807
(lp1808
(dp1809
g4
g5
sg6
g7
(g8
(I0
tp1810
g10
tp1811
Rp1812
(I1
(I0
I6
tp1813
g17
I00
g20
tp1814
bsasS'P2789__1__3600___1500.png'
p1815
(lp1816
(dp1817
g4
g5
sg6
g7
(g8
(I0
tp1818
g10
tp1819
Rp1820
(I1
(I0
I6
tp1821
g17
I00
g20
tp1822
bsasS'P0725__1__0___0.png'
p1823
(lp1824
(dp1825
g4
g5
sg6
g7
(g8
(I0
tp1826
g10
tp1827
Rp1828
(I1
(I0
I6
tp1829
g17
I00
g20
tp1830
bsasS'P2678__1__3225___1500.png'
p1831
(lp1832
(dp1833
g4
g5
sg6
g7
(g8
(I0
tp1834
g10
tp1835
Rp1836
(I1
(I0
I6
tp1837
g17
I00
g20
tp1838
bsasS'P0353__1__0___500.png'
p1839
(lp1840
(dp1841
g4
g5
sg6
g7
(g8
(I0
tp1842
g10
tp1843
Rp1844
(I1
(I0
I6
tp1845
g17
I00
g20
tp1846
bsasS'P2789__1__3654___2500.png'
p1847
(lp1848
(dp1849
g4
g5
sg6
g7
(g8
(I0
tp1850
g10
tp1851
Rp1852
(I1
(I0
I6
tp1853
g17
I00
g20
tp1854
bsasS'P1386__1__1800___1500.png'
p1855
(lp1856
(dp1857
g4
g5
sg6
g7
(g8
(I0
tp1858
g10
tp1859
Rp1860
(I1
(I0
I6
tp1861
g17
I00
g20
tp1862
bsasS'P2709__1__1800___1500.png'
p1863
(lp1864
(dp1865
g4
g5
sg6
g7
(g8
(I0
tp1866
g10
tp1867
Rp1868
(I1
(I0
I6
tp1869
g17
I00
g20
tp1870
bsasS'P0411__1__0___486.png'
p1871
(lp1872
(dp1873
g4
g5
sg6
g7
(g8
(I0
tp1874
g10
tp1875
Rp1876
(I1
(I0
I6
tp1877
g17
I00
g20
tp1878
bsasS'P1268__1__0___0.png'
p1879
(lp1880
(dp1881
g4
g5
sg6
g7
(g8
(I0
tp1882
g10
tp1883
Rp1884
(I1
(I0
I6
tp1885
g17
I00
g20
tp1886
bsasS'P0019__1__5400___2500.png'
p1887
(lp1888
(dp1889
g4
g5
sg6
g7
(g8
(I0
tp1890
g10
tp1891
Rp1892
(I1
(I0
I6
tp1893
g17
I00
g20
tp1894
bsasS'P0858__1__0___0.png'
p1895
(lp1896
(dp1897
g4
g5
sg6
g7
(g8
(I0
tp1898
g10
tp1899
Rp1900
(I1
(I0
I6
tp1901
g17
I00
g20
tp1902
bsasS'P2766__1__2700___1000.png'
p1903
(lp1904
(dp1905
g4
g5
sg6
g7
(g8
(I0
tp1906
g10
tp1907
Rp1908
(I1
(I0
I6
tp1909
g17
I00
g20
tp1910
bsasS'P1332__1__900___1000.png'
p1911
(lp1912
(dp1913
g4
g5
sg6
g7
(g8
(I0
tp1914
g10
tp1915
Rp1916
(I1
(I0
I6
tp1917
g17
I00
g20
tp1918
bsasS'P0887__1__900___1500.png'
p1919
(lp1920
(dp1921
g4
g5
sg6
g7
(g8
(I0
tp1922
g10
tp1923
Rp1924
(I1
(I0
I6
tp1925
g17
I00
g20
tp1926
bsasS'P1386__1__0___1000.png'
p1927
(lp1928
(dp1929
g4
g5
sg6
g7
(g8
(I0
tp1930
g10
tp1931
Rp1932
(I1
(I0
I6
tp1933
g17
I00
g20
tp1934
bsasS'P0887__1__0___2164.png'
p1935
(lp1936
(dp1937
g4
g5
sg6
g7
(g8
(I0
tp1938
g10
tp1939
Rp1940
(I1
(I0
I6
tp1941
g17
I00
g20
tp1942
bsasS'P2310__1__0___0.png'
p1943
(lp1944
(dp1945
g4
g5
sg6
g7
(g8
(I0
tp1946
g10
tp1947
Rp1948
(I1
(I0
I6
tp1949
g17
I00
g20
tp1950
bsasS'P1257__1__1800___2500.png'
p1951
(lp1952
(dp1953
g4
g5
sg6
g7
(g8
(I0
tp1954
g10
tp1955
Rp1956
(I1
(I0
I6
tp1957
g17
I00
g20
tp1958
bsasS'P1246__1__1800___2500.png'
p1959
(lp1960
(dp1961
g4
g5
sg6
g7
(g8
(I0
tp1962
g10
tp1963
Rp1964
(I1
(I0
I6
tp1965
g17
I00
g20
tp1966
bsasS'P2285__1__0___2500.png'
p1967
(lp1968
(dp1969
g4
g5
sg6
g7
(g8
(I0
tp1970
g10
tp1971
Rp1972
(I1
(I0
I6
tp1973
g17
I00
g20
tp1974
bsasS'P2645__1__3600___2842.png'
p1975
(lp1976
(dp1977
g4
g5
sg6
g7
(g8
(I0
tp1978
g10
tp1979
Rp1980
(I1
(I0
I6
tp1981
g17
I00
g20
tp1982
bsasS'P0683__1__900___0.png'
p1983
(lp1984
(dp1985
g4
g5
sg6
g7
(g8
(I0
tp1986
g10
tp1987
Rp1988
(I1
(I0
I6
tp1989
g17
I00
g20
tp1990
bsasS'P2733__1__900___500.png'
p1991
(lp1992
(dp1993
g4
g5
sg6
g7
(g8
(I0
tp1994
g10
tp1995
Rp1996
(I1
(I0
I6
tp1997
g17
I00
g20
tp1998
bsasS'P0795__1__0___1500.png'
p1999
(lp2000
(dp2001
g4
g5
sg6
g7
(g8
(I0
tp2002
g10
tp2003
Rp2004
(I1
(I0
I6
tp2005
g17
I00
g20
tp2006
bsasS'P0331__1__0___0.png'
p2007
(lp2008
(dp2009
g4
g5
sg6
g7
(g8
(I0
tp2010
g10
tp2011
Rp2012
(I1
(I0
I6
tp2013
g17
I00
g20
tp2014
bsasS'P0259__1__1250___1000.png'
p2015
(lp2016
(dp2017
g4
g5
sg6
g7
(g8
(I0
tp2018
g10
tp2019
Rp2020
(I1
(I0
I6
tp2021
g17
I00
g20
tp2022
bsasS'P0526__1__0___0.png'
p2023
(lp2024
(dp2025
g4
g5
sg6
g7
(g8
(I0
tp2026
g10
tp2027
Rp2028
(I1
(I0
I6
tp2029
g17
I00
g20
tp2030
bsasS'P0796__1__0___1724.png'
p2031
(lp2032
(dp2033
g4
g5
sg6
g7
(g8
(I0
tp2034
g10
tp2035
Rp2036
(I1
(I0
I6
tp2037
g17
I00
g20
tp2038
bsasS'P2285__1__1800___500.png'
p2039
(lp2040
(dp2041
g4
g5
sg6
g7
(g8
(I0
tp2042
g10
tp2043
Rp2044
(I1
(I0
I6
tp2045
g17
I00
g20
tp2046
bsasS'P0977__1__1053___1000.png'
p2047
(lp2048
(dp2049
g4
g5
sg6
g7
(g8
(I0
tp2050
g10
tp2051
Rp2052
(I1
(I0
I6
tp2053
g17
I00
g20
tp2054
bsasS'P0795__1__776___1500.png'
p2055
(lp2056
(dp2057
g4
g5
sg6
g7
(g8
(I0
tp2058
g10
tp2059
Rp2060
(I1
(I0
I6
tp2061
g17
I00
g20
tp2062
bsasS'P0897__1__900___2000.png'
p2063
(lp2064
(dp2065
g4
g5
sg6
g7
(g8
(I0
tp2066
g10
tp2067
Rp2068
(I1
(I0
I6
tp2069
g17
I00
g20
tp2070
bsasS'P1075__1__900___0.png'
p2071
(lp2072
(dp2073
g4
g5
sg6
g7
(g8
(I0
tp2074
g10
tp2075
Rp2076
(I1
(I0
I6
tp2077
g17
I00
g20
tp2078
bsasS'P1429__1__0___0.png'
p2079
(lp2080
(dp2081
g4
g5
sg6
g7
(g8
(I0
tp2082
g10
tp2083
Rp2084
(I1
(I0
I6
tp2085
g17
I00
g20
tp2086
bsasS'P1332__1__2700___1000.png'
p2087
(lp2088
(dp2089
g4
g5
sg6
g7
(g8
(I0
tp2090
g10
tp2091
Rp2092
(I1
(I0
I6
tp2093
g17
I00
g20
tp2094
bsasS'P0764__1__0___0.png'
p2095
(lp2096
(dp2097
g4
g5
sg6
g7
(g8
(I0
tp2098
g10
tp2099
Rp2100
(I1
(I0
I6
tp2101
g17
I00
g20
tp2102
bsasS'P1429__1__0___1000.png'
p2103
(lp2104
(dp2105
g4
g5
sg6
g7
(g8
(I0
tp2106
g10
tp2107
Rp2108
(I1
(I0
I6
tp2109
g17
I00
g20
tp2110
bsasS'P1246__1__1800___3000.png'
p2111
(lp2112
(dp2113
g4
g5
sg6
g7
(g8
(I0
tp2114
g10
tp2115
Rp2116
(I1
(I0
I6
tp2117
g17
I00
g20
tp2118
bsasS'P0858__1__1384___500.png'
p2119
(lp2120
(dp2121
g4
g5
sg6
g7
(g8
(I0
tp2122
g10
tp2123
Rp2124
(I1
(I0
I6
tp2125
g17
I00
g20
tp2126
bsasS'P2789__1__1800___2000.png'
p2127
(lp2128
(dp2129
g4
g5
sg6
g7
(g8
(I0
tp2130
g10
tp2131
Rp2132
(I1
(I0
I6
tp2133
g17
I00
g20
tp2134
bsasS'P2285__1__2589___2000.png'
p2135
(lp2136
(dp2137
g4
g5
sg6
g7
(g8
(I0
tp2138
g10
tp2139
Rp2140
(I1
(I0
I6
tp2141
g17
I00
g20
tp2142
bsasS'P0761__1__618___764.png'
p2143
(lp2144
(dp2145
g4
g5
sg6
g7
(g8
(I0
tp2146
g10
tp2147
Rp2148
(I1
(I0
I6
tp2149
g17
I00
g20
tp2150
bsasS'P0262__1__0___500.png'
p2151
(lp2152
(dp2153
g4
g5
sg6
g7
(g8
(I0
tp2154
g10
tp2155
Rp2156
(I1
(I0
I6
tp2157
g17
I00
g20
tp2158
bsasS'P1315__1__3000___2000.png'
p2159
(lp2160
(dp2161
g4
g5
sg6
g7
(g8
(I0
tp2162
g10
tp2163
Rp2164
(I1
(I0
I6
tp2165
g17
I00
g20
tp2166
bsasS'P1268__1__900___0.png'
p2167
(lp2168
(dp2169
g4
g5
sg6
g7
(g8
(I0
tp2170
g10
tp2171
Rp2172
(I1
(I0
I6
tp2173
g17
I00
g20
tp2174
bsasS'P2678__1__2700___1000.png'
p2175
(lp2176
(dp2177
g4
g5
sg6
g7
(g8
(I0
tp2178
g10
tp2179
Rp2180
(I1
(I0
I6
tp2181
g17
I00
g20
tp2182
bsasS'P2758__1__2700___1500.png'
p2183
(lp2184
(dp2185
g4
g5
sg6
g7
(g8
(I0
tp2186
g10
tp2187
Rp2188
(I1
(I0
I6
tp2189
g17
I00
g20
tp2190
bsasS'P0887__1__1096___500.png'
p2191
(lp2192
(dp2193
g4
g5
sg6
g7
(g8
(I0
tp2194
g10
tp2195
Rp2196
(I1
(I0
I6
tp2197
g17
I00
g20
tp2198
bsasS'P2794__1__3392___2500.png'
p2199
(lp2200
(dp2201
g4
g5
sg6
g7
(g8
(I0
tp2202
g10
tp2203
Rp2204
(I1
(I0
I6
tp2205
g17
I00
g20
tp2206
bsasS'P0887__1__0___1500.png'
p2207
(lp2208
(dp2209
g4
g5
sg6
g7
(g8
(I0
tp2210
g10
tp2211
Rp2212
(I1
(I0
I6
tp2213
g17
I00
g20
tp2214
bsasS'P1246__1__1800___2000.png'
p2215
(lp2216
(dp2217
g4
g5
sg6
g7
(g8
(I0
tp2218
g10
tp2219
Rp2220
(I1
(I0
I6
tp2221
g17
I00
g20
tp2222
bsasS'P0550__1__0___243.png'
p2223
(lp2224
(dp2225
g4
g5
sg6
g7
(g8
(I0
tp2226
g10
tp2227
Rp2228
(I1
(I0
I6
tp2229
g17
I00
g20
tp2230
bsasS'P2789__1__2700___3000.png'
p2231
(lp2232
(dp2233
g4
g5
sg6
g7
(g8
(I0
tp2234
g10
tp2235
Rp2236
(I1
(I0
I6
tp2237
g17
I00
g20
tp2238
bsasS'P2794__1__1800___2500.png'
p2239
(lp2240
(dp2241
g4
g5
sg6
g7
(g8
(I0
tp2242
g10
tp2243
Rp2244
(I1
(I0
I6
tp2245
g17
I00
g20
tp2246
bsasS'P2789__1__0___3500.png'
p2247
(lp2248
(dp2249
g4
g5
sg6
g7
(g8
(I0
tp2250
g10
tp2251
Rp2252
(I1
(I0
I6
tp2253
g17
I00
g20
tp2254
bsasS'P2794__1__1800___0.png'
p2255
(lp2256
(dp2257
g4
g5
sg6
g7
(g8
(I0
tp2258
g10
tp2259
Rp2260
(I1
(I0
I6
tp2261
g17
I00
g20
tp2262
bsasS'P2709__1__1990___1814.png'
p2263
(lp2264
(dp2265
g4
g5
sg6
g7
(g8
(I0
tp2266
g10
tp2267
Rp2268
(I1
(I0
I6
tp2269
g17
I00
g20
tp2270
bsasS'P1738__1__1800___2000.png'
p2271
(lp2272
(dp2273
g4
g5
sg6
g7
(g8
(I0
tp2274
g10
tp2275
Rp2276
(I1
(I0
I6
tp2277
g17
I00
g20
tp2278
bsasS'P0715__1__330___500.png'
p2279
(lp2280
(dp2281
g4
g5
sg6
g7
(g8
(I0
tp2282
g10
tp2283
Rp2284
(I1
(I0
I6
tp2285
g17
I00
g20
tp2286
bsasS'P0761__1__0___764.png'
p2287
(lp2288
(dp2289
g4
g5
sg6
g7
(g8
(I0
tp2290
g10
tp2291
Rp2292
(I1
(I0
I6
tp2293
g17
I00
g20
tp2294
bsasS'P1234__1__3000___2000.png'
p2295
(lp2296
(dp2297
g4
g5
sg6
g7
(g8
(I0
tp2298
g10
tp2299
Rp2300
(I1
(I0
I6
tp2301
g17
I00
g20
tp2302
bsasS'P2645__1__0___2842.png'
p2303
(lp2304
(dp2305
g4
g5
sg6
g7
(g8
(I0
tp2306
g10
tp2307
Rp2308
(I1
(I0
I6
tp2309
g17
I00
g20
tp2310
bsasS'P0019__1__3600___500.png'
p2311
(lp2312
(dp2313
g4
g5
sg6
g7
(g8
(I0
tp2314
g10
tp2315
Rp2316
(I1
(I0
I6
tp2317
g17
I00
g20
tp2318
bsasS'P0706__1__0___0.png'
p2319
(lp2320
(dp2321
g4
g5
sg6
g7
(g8
(I0
tp2322
g10
tp2323
Rp2324
(I1
(I0
I6
tp2325
g17
I00
g20
tp2326
bsasS'P2678__1__900___0.png'
p2327
(lp2328
(dp2329
g4
g5
sg6
g7
(g8
(I0
tp2330
g10
tp2331
Rp2332
(I1
(I0
I6
tp2333
g17
I00
g20
tp2334
bsasS'P0259__1__1250___500.png'
p2335
(lp2336
(dp2337
g4
g5
sg6
g7
(g8
(I0
tp2338
g10
tp2339
Rp2340
(I1
(I0
I6
tp2341
g17
I00
g20
tp2342
bsasS'P0801__1__900___1110.png'
p2343
(lp2344
(dp2345
g4
g5
sg6
g7
(g8
(I0
tp2346
g10
tp2347
Rp2348
(I1
(I0
I6
tp2349
g17
I00
g20
tp2350
bsasS'P2726__1__1800___500.png'
p2351
(lp2352
(dp2353
g4
g5
sg6
g7
(g8
(I0
tp2354
g10
tp2355
Rp2356
(I1
(I0
I6
tp2357
g17
I00
g20
tp2358
bsasS'P0179__1__2700___3942.png'
p2359
(lp2360
(dp2361
g4
g5
sg6
g7
(g8
(I0
tp2362
g10
tp2363
Rp2364
(I1
(I0
I6
tp2365
g17
I00
g20
tp2366
bsasS'P2771__1__0___500.png'
p2367
(lp2368
(dp2369
g4
g5
sg6
g7
(g8
(I0
tp2370
g10
tp2371
Rp2372
(I1
(I0
I6
tp2373
g17
I00
g20
tp2374
bsasS'P1623__1__3000___4358.png'
p2375
(lp2376
(dp2377
g4
g5
sg6
g7
(g8
(I0
tp2378
g10
tp2379
Rp2380
(I1
(I0
I6
tp2381
g17
I00
g20
tp2382
bsasS'P2645__1__3600___2500.png'
p2383
(lp2384
(dp2385
g4
g5
sg6
g7
(g8
(I0
tp2386
g10
tp2387
Rp2388
(I1
(I0
I6
tp2389
g17
I00
g20
tp2390
bsasS'P0053__1__0___821.png'
p2391
(lp2392
(dp2393
g4
g5
sg6
g7
(g8
(I0
tp2394
g10
tp2395
Rp2396
(I1
(I0
I6
tp2397
g17
I00
g20
tp2398
bsasS'P0989__1__0___1021.png'
p2399
(lp2400
(dp2401
g4
g5
sg6
g7
(g8
(I0
tp2402
g10
tp2403
Rp2404
(I1
(I0
I6
tp2405
g17
I00
g20
tp2406
bsasS'P2794__1__2700___500.png'
p2407
(lp2408
(dp2409
g4
g5
sg6
g7
(g8
(I0
tp2410
g10
tp2411
Rp2412
(I1
(I0
I6
tp2413
g17
I00
g20
tp2414
bsasS'P0683__1__1029___1824.png'
p2415
(lp2416
(dp2417
g4
g5
sg6
g7
(g8
(I0
tp2418
g10
tp2419
Rp2420
(I1
(I0
I6
tp2421
g17
I00
g20
tp2422
bsasS'P2726__1__0___2000.png'
p2423
(lp2424
(dp2425
g4
g5
sg6
g7
(g8
(I0
tp2426
g10
tp2427
Rp2428
(I1
(I0
I6
tp2429
g17
I00
g20
tp2430
bsasS'P1090__1__900___500.png'
p2431
(lp2432
(dp2433
g4
g5
sg6
g7
(g8
(I0
tp2434
g10
tp2435
Rp2436
(I1
(I0
I6
tp2437
g17
I00
g20
tp2438
bsasS'P1075__1__1163___1000.png'
p2439
(lp2440
(dp2441
g4
g5
sg6
g7
(g8
(I0
tp2442
g10
tp2443
Rp2444
(I1
(I0
I6
tp2445
g17
I00
g20
tp2446
bsasS'P1275__1__2700___1500.png'
p2447
(lp2448
(dp2449
g4
g5
sg6
g7
(g8
(I0
tp2450
g10
tp2451
Rp2452
(I1
(I0
I6
tp2453
g17
I00
g20
tp2454
bsasS'P1242__1__3000___1500.png'
p2455
(lp2456
(dp2457
g4
g5
sg6
g7
(g8
(I0
tp2458
g10
tp2459
Rp2460
(I1
(I0
I6
tp2461
g17
I00
g20
tp2462
bsasS'P2789__1__1800___1500.png'
p2463
(lp2464
(dp2465
g4
g5
sg6
g7
(g8
(I0
tp2466
g10
tp2467
Rp2468
(I1
(I0
I6
tp2469
g17
I00
g20
tp2470
bsasS'P0858__1__0___500.png'
p2471
(lp2472
(dp2473
g4
g5
sg6
g7
(g8
(I0
tp2474
g10
tp2475
Rp2476
(I1
(I0
I6
tp2477
g17
I00
g20
tp2478
bsasS'P0989__1__0___1000.png'
p2479
(lp2480
(dp2481
g4
g5
sg6
g7
(g8
(I0
tp2482
g10
tp2483
Rp2484
(I1
(I0
I6
tp2485
g17
I00
g20
tp2486
bsasS'P0864__1__900___500.png'
p2487
(lp2488
(dp2489
g4
g5
sg6
g7
(g8
(I0
tp2490
g10
tp2491
Rp2492
(I1
(I0
I6
tp2493
g17
I00
g20
tp2494
bsasS'P0897__1__1331___500.png'
p2495
(lp2496
(dp2497
g4
g5
sg6
g7
(g8
(I0
tp2498
g10
tp2499
Rp2500
(I1
(I0
I6
tp2501
g17
I00
g20
tp2502
bsasS'P2758__1__1800___1000.png'
p2503
(lp2504
(dp2505
g4
g5
sg6
g7
(g8
(I0
tp2506
g10
tp2507
Rp2508
(I1
(I0
I6
tp2509
g17
I00
g20
tp2510
bsasS'P0336__1__0___500.png'
p2511
(lp2512
(dp2513
g4
g5
sg6
g7
(g8
(I0
tp2514
g10
tp2515
Rp2516
(I1
(I0
I6
tp2517
g17
I00
g20
tp2518
bsasS'P1242__1__900___0.png'
p2519
(lp2520
(dp2521
g4
g5
sg6
g7
(g8
(I0
tp2522
g10
tp2523
Rp2524
(I1
(I0
I6
tp2525
g17
I00
g20
tp2526
bsasS'P0789__1__0___0.png'
p2527
(lp2528
(dp2529
g4
g5
sg6
g7
(g8
(I0
tp2530
g10
tp2531
Rp2532
(I1
(I0
I6
tp2533
g17
I00
g20
tp2534
bsasS'P2789__1__3654___3897.png'
p2535
(lp2536
(dp2537
g4
g5
sg6
g7
(g8
(I0
tp2538
g10
tp2539
Rp2540
(I1
(I0
I6
tp2541
g17
I00
g20
tp2542
bsasS'P0897__1__0___4428.png'
p2543
(lp2544
(dp2545
g4
g5
sg6
g7
(g8
(I0
tp2546
g10
tp2547
Rp2548
(I1
(I0
I6
tp2549
g17
I00
g20
tp2550
bsasS'P2286__1__900___0.png'
p2551
(lp2552
(dp2553
g4
g5
sg6
g7
(g8
(I0
tp2554
g10
tp2555
Rp2556
(I1
(I0
I6
tp2557
g17
I00
g20
tp2558
bsasS'P1623__1__3000___4000.png'
p2559
(lp2560
(dp2561
g4
g5
sg6
g7
(g8
(I0
tp2562
g10
tp2563
Rp2564
(I1
(I0
I6
tp2565
g17
I00
g20
tp2566
bsasS'P1225__1__900___0.png'
p2567
(lp2568
(dp2569
g4
g5
sg6
g7
(g8
(I0
tp2570
g10
tp2571
Rp2572
(I1
(I0
I6
tp2573
g17
I00
g20
tp2574
bsasS'P1356__1__0___500.png'
p2575
(lp2576
(dp2577
g4
g5
sg6
g7
(g8
(I0
tp2578
g10
tp2579
Rp2580
(I1
(I0
I6
tp2581
g17
I00
g20
tp2582
bsasS'P0019__1__5400___3127.png'
p2583
(lp2584
(dp2585
g4
g5
sg6
g7
(g8
(I0
tp2586
g10
tp2587
Rp2588
(I1
(I0
I6
tp2589
g17
I00
g20
tp2590
bsasS'P2758__1__2700___3000.png'
p2591
(lp2592
(dp2593
g4
g5
sg6
g7
(g8
(I0
tp2594
g10
tp2595
Rp2596
(I1
(I0
I6
tp2597
g17
I00
g20
tp2598
bsasS'P2701__1__2950___1500.png'
p2599
(lp2600
(dp2601
g4
g5
sg6
g7
(g8
(I0
tp2602
g10
tp2603
Rp2604
(I1
(I0
I6
tp2605
g17
I00
g20
tp2606
bsasS'P0761__1__618___0.png'
p2607
(lp2608
(dp2609
g4
g5
sg6
g7
(g8
(I0
tp2610
g10
tp2611
Rp2612
(I1
(I0
I6
tp2613
g17
I00
g20
tp2614
bsasS'P2758__1__3600___3746.png'
p2615
(lp2616
(dp2617
g4
g5
sg6
g7
(g8
(I0
tp2618
g10
tp2619
Rp2620
(I1
(I0
I6
tp2621
g17
I00
g20
tp2622
bsasS'P0729__1__0___707.png'
p2623
(lp2624
(dp2625
g4
g5
sg6
g7
(g8
(I0
tp2626
g10
tp2627
Rp2628
(I1
(I0
I6
tp2629
g17
I00
g20
tp2630
bsasS'P0696__1__0___500.png'
p2631
(lp2632
(dp2633
g4
g5
sg6
g7
(g8
(I0
tp2634
g10
tp2635
Rp2636
(I1
(I0
I6
tp2637
g17
I00
g20
tp2638
bsasS'P2726__1__900___2002.png'
p2639
(lp2640
(dp2641
g4
g5
sg6
g7
(g8
(I0
tp2642
g10
tp2643
Rp2644
(I1
(I0
I6
tp2645
g17
I00
g20
tp2646
bsasS'P2709__1__0___1500.png'
p2647
(lp2648
(dp2649
g4
g5
sg6
g7
(g8
(I0
tp2650
g10
tp2651
Rp2652
(I1
(I0
I6
tp2653
g17
I00
g20
tp2654
bsasS'P2758__1__4500___2000.png'
p2655
(lp2656
(dp2657
g4
g5
sg6
g7
(g8
(I0
tp2658
g10
tp2659
Rp2660
(I1
(I0
I6
tp2661
g17
I00
g20
tp2662
bsasS'P0858__1__900___0.png'
p2663
(lp2664
(dp2665
g4
g5
sg6
g7
(g8
(I0
tp2666
g10
tp2667
Rp2668
(I1
(I0
I6
tp2669
g17
I00
g20
tp2670
bsasS'P0964__1__900___551.png'
p2671
(lp2672
(dp2673
g4
g5
sg6
g7
(g8
(I0
tp2674
g10
tp2675
Rp2676
(I1
(I0
I6
tp2677
g17
I00
g20
tp2678
bsasS'P1356__1__900___3000.png'
p2679
(lp2680
(dp2681
g4
g5
sg6
g7
(g8
(I0
tp2682
g10
tp2683
Rp2684
(I1
(I0
I6
tp2685
g17
I00
g20
tp2686
bsasS'P0801__1__1800___1000.png'
p2687
(lp2688
(dp2689
g4
g5
sg6
g7
(g8
(I0
tp2690
g10
tp2691
Rp2692
(I1
(I0
I6
tp2693
g17
I00
g20
tp2694
bsasS'P1225__1__2700___500.png'
p2695
(lp2696
(dp2697
g4
g5
sg6
g7
(g8
(I0
tp2698
g10
tp2699
Rp2700
(I1
(I0
I6
tp2701
g17
I00
g20
tp2702
bsasS'P2709__1__1990___1000.png'
p2703
(lp2704
(dp2705
g4
g5
sg6
g7
(g8
(I0
tp2706
g10
tp2707
Rp2708
(I1
(I0
I6
tp2709
g17
I00
g20
tp2710
bsasS'P2059__1__0___1000.png'
p2711
(lp2712
(dp2713
g4
g5
sg6
g7
(g8
(I0
tp2714
g10
tp2715
Rp2716
(I1
(I0
I6
tp2717
g17
I00
g20
tp2718
bsasS'P0964__1__0___551.png'
p2719
(lp2720
(dp2721
g4
g5
sg6
g7
(g8
(I0
tp2722
g10
tp2723
Rp2724
(I1
(I0
I6
tp2725
g17
I00
g20
tp2726
bsasS'P0887__1__0___500.png'
p2727
(lp2728
(dp2729
g4
g5
sg6
g7
(g8
(I0
tp2730
g10
tp2731
Rp2732
(I1
(I0
I6
tp2733
g17
I00
g20
tp2734
bsasS'P0259__1__900___1000.png'
p2735
(lp2736
(dp2737
g4
g5
sg6
g7
(g8
(I0
tp2738
g10
tp2739
Rp2740
(I1
(I0
I6
tp2741
g17
I00
g20
tp2742
bsasS'P0795__1__0___1000.png'
p2743
(lp2744
(dp2745
g4
g5
sg6
g7
(g8
(I0
tp2746
g10
tp2747
Rp2748
(I1
(I0
I6
tp2749
g17
I00
g20
tp2750
bsasS'P1007__1__2700___662.png'
p2751
(lp2752
(dp2753
g4
g5
sg6
g7
(g8
(I0
tp2754
g10
tp2755
Rp2756
(I1
(I0
I6
tp2757
g17
I00
g20
tp2758
bsasS'P2645__1__900___1000.png'
p2759
(lp2760
(dp2761
g4
g5
sg6
g7
(g8
(I0
tp2762
g10
tp2763
Rp2764
(I1
(I0
I6
tp2765
g17
I00
g20
tp2766
bsasS'P0262__1__900___1500.png'
p2767
(lp2768
(dp2769
g4
g5
sg6
g7
(g8
(I0
tp2770
g10
tp2771
Rp2772
(I1
(I0
I6
tp2773
g17
I00
g20
tp2774
bsasS'P2726__1__1832___500.png'
p2775
(lp2776
(dp2777
g4
g5
sg6
g7
(g8
(I0
tp2778
g10
tp2779
Rp2780
(I1
(I0
I6
tp2781
g17
I00
g20
tp2782
bsasS'P1332__1__0___1000.png'
p2783
(lp2784
(dp2785
g4
g5
sg6
g7
(g8
(I0
tp2786
g10
tp2787
Rp2788
(I1
(I0
I6
tp2789
g17
I00
g20
tp2790
bsasS'P1429__1__2165___1500.png'
p2791
(lp2792
(dp2793
g4
g5
sg6
g7
(g8
(I0
tp2794
g10
tp2795
Rp2796
(I1
(I0
I6
tp2797
g17
I00
g20
tp2798
bsasS'P1225__1__3000___1500.png'
p2799
(lp2800
(dp2801
g4
g5
sg6
g7
(g8
(I0
tp2802
g10
tp2803
Rp2804
(I1
(I0
I6
tp2805
g17
I00
g20
tp2806
bsasS'P1738__1__900___2000.png'
p2807
(lp2808
(dp2809
g4
g5
sg6
g7
(g8
(I0
tp2810
g10
tp2811
Rp2812
(I1
(I0
I6
tp2813
g17
I00
g20
tp2814
bsasS'P0838__1__0___1065.png'
p2815
(lp2816
(dp2817
g4
g5
sg6
g7
(g8
(I0
tp2818
g10
tp2819
Rp2820
(I1
(I0
I6
tp2821
g17
I00
g20
tp2822
bsasS'P0936__1__2240___558.png'
p2823
(lp2824
(dp2825
g4
g5
sg6
g7
(g8
(I0
tp2826
g10
tp2827
Rp2828
(I1
(I0
I6
tp2829
g17
I00
g20
tp2830
bsasS'P0336__1__0___805.png'
p2831
(lp2832
(dp2833
g4
g5
sg6
g7
(g8
(I0
tp2834
g10
tp2835
Rp2836
(I1
(I0
I6
tp2837
g17
I00
g20
tp2838
bsasS'P0799__1__327___500.png'
p2839
(lp2840
(dp2841
g4
g5
sg6
g7
(g8
(I0
tp2842
g10
tp2843
Rp2844
(I1
(I0
I6
tp2845
g17
I00
g20
tp2846
bsasS'P1246__1__1800___3400.png'
p2847
(lp2848
(dp2849
g4
g5
sg6
g7
(g8
(I0
tp2850
g10
tp2851
Rp2852
(I1
(I0
I6
tp2853
g17
I00
g20
tp2854
bsasS'P1234__1__2700___2500.png'
p2855
(lp2856
(dp2857
g4
g5
sg6
g7
(g8
(I0
tp2858
g10
tp2859
Rp2860
(I1
(I0
I6
tp2861
g17
I00
g20
tp2862
bsasS'P1213__1__2700___2000.png'
p2863
(lp2864
(dp2865
g4
g5
sg6
g7
(g8
(I0
tp2866
g10
tp2867
Rp2868
(I1
(I0
I6
tp2869
g17
I00
g20
tp2870
bsasS'P1225__1__1800___0.png'
p2871
(lp2872
(dp2873
g4
g5
sg6
g7
(g8
(I0
tp2874
g10
tp2875
Rp2876
(I1
(I0
I6
tp2877
g17
I00
g20
tp2878
bsasS'P0696__1__0___1000.png'
p2879
(lp2880
(dp2881
g4
g5
sg6
g7
(g8
(I0
tp2882
g10
tp2883
Rp2884
(I1
(I0
I6
tp2885
g17
I00
g20
tp2886
bsasS'P1860__1__956___500.png'
p2887
(lp2888
(dp2889
g4
g5
sg6
g7
(g8
(I0
tp2890
g10
tp2891
Rp2892
(I1
(I0
I6
tp2893
g17
I00
g20
tp2894
bsasS'P1332__1__2700___1500.png'
p2895
(lp2896
(dp2897
g4
g5
sg6
g7
(g8
(I0
tp2898
g10
tp2899
Rp2900
(I1
(I0
I6
tp2901
g17
I00
g20
tp2902
bsasS'P0801__1__900___0.png'
p2903
(lp2904
(dp2905
g4
g5
sg6
g7
(g8
(I0
tp2906
g10
tp2907
Rp2908
(I1
(I0
I6
tp2909
g17
I00
g20
tp2910
bsasS'P1268__1__1800___2500.png'
p2911
(lp2912
(dp2913
g4
g5
sg6
g7
(g8
(I0
tp2914
g10
tp2915
Rp2916
(I1
(I0
I6
tp2917
g17
I00
g20
tp2918
bsasS'P0550__1__0___0.png'
p2919
(lp2920
(dp2921
g4
g5
sg6
g7
(g8
(I0
tp2922
g10
tp2923
Rp2924
(I1
(I0
I6
tp2925
g17
I00
g20
tp2926
bsasS'P0706__1__111___582.png'
p2927
(lp2928
(dp2929
g4
g5
sg6
g7
(g8
(I0
tp2930
g10
tp2931
Rp2932
(I1
(I0
I6
tp2933
g17
I00
g20
tp2934
bsasS'P1007__1__6300___500.png'
p2935
(lp2936
(dp2937
g4
g5
sg6
g7
(g8
(I0
tp2938
g10
tp2939
Rp2940
(I1
(I0
I6
tp2941
g17
I00
g20
tp2942
bsasS'P0336__1__900___500.png'
p2943
(lp2944
(dp2945
g4
g5
sg6
g7
(g8
(I0
tp2946
g10
tp2947
Rp2948
(I1
(I0
I6
tp2949
g17
I00
g20
tp2950
bsasS'P0801__1__2424___1110.png'
p2951
(lp2952
(dp2953
g4
g5
sg6
g7
(g8
(I0
tp2954
g10
tp2955
Rp2956
(I1
(I0
I6
tp2957
g17
I00
g20
tp2958
bsasS'P0887__1__0___1000.png'
p2959
(lp2960
(dp2961
g4
g5
sg6
g7
(g8
(I0
tp2962
g10
tp2963
Rp2964
(I1
(I0
I6
tp2965
g17
I00
g20
tp2966
bsasS'P0897__1__900___3000.png'
p2967
(lp2968
(dp2969
g4
g5
sg6
g7
(g8
(I0
tp2970
g10
tp2971
Rp2972
(I1
(I0
I6
tp2973
g17
I00
g20
tp2974
bsasS'P2645__1__2700___1500.png'
p2975
(lp2976
(dp2977
g4
g5
sg6
g7
(g8
(I0
tp2978
g10
tp2979
Rp2980
(I1
(I0
I6
tp2981
g17
I00
g20
tp2982
bsasS'P0420__1__620___0.png'
p2983
(lp2984
(dp2985
g4
g5
sg6
g7
(g8
(I0
tp2986
g10
tp2987
Rp2988
(I1
(I0
I6
tp2989
g17
I00
g20
tp2990
bsasS'P0053__1__409___500.png'
p2991
(lp2992
(dp2993
g4
g5
sg6
g7
(g8
(I0
tp2994
g10
tp2995
Rp2996
(I1
(I0
I6
tp2997
g17
I00
g20
tp2998
bsasS'P1212__1__3000___3400.png'
p2999
(lp3000
(dp3001
g4
g5
sg6
g7
(g8
(I0
tp3002
g10
tp3003
Rp3004
(I1
(I0
I6
tp3005
g17
I00
g20
tp3006
bsasS'P0858__1__1384___865.png'
p3007
(lp3008
(dp3009
g4
g5
sg6
g7
(g8
(I0
tp3010
g10
tp3011
Rp3012
(I1
(I0
I6
tp3013
g17
I00
g20
tp3014
bsasS'P0839__1__0___1000.png'
p3015
(lp3016
(dp3017
g4
g5
sg6
g7
(g8
(I0
tp3018
g10
tp3019
Rp3020
(I1
(I0
I6
tp3021
g17
I00
g20
tp3022
bsasS'P2789__1__3600___2000.png'
p3023
(lp3024
(dp3025
g4
g5
sg6
g7
(g8
(I0
tp3026
g10
tp3027
Rp3028
(I1
(I0
I6
tp3029
g17
I00
g20
tp3030
bsasS'P0989__1__98___1000.png'
p3031
(lp3032
(dp3033
g4
g5
sg6
g7
(g8
(I0
tp3034
g10
tp3035
Rp3036
(I1
(I0
I6
tp3037
g17
I00
g20
tp3038
bsasS'P0579__1__0___500.png'
p3039
(lp3040
(dp3041
g4
g5
sg6
g7
(g8
(I0
tp3042
g10
tp3043
Rp3044
(I1
(I0
I6
tp3045
g17
I00
g20
tp3046
bsasS'P2794__1__3392___2000.png'
p3047
(lp3048
(dp3049
g4
g5
sg6
g7
(g8
(I0
tp3050
g10
tp3051
Rp3052
(I1
(I0
I6
tp3053
g17
I00
g20
tp3054
bsasS'P0897__1__1331___2500.png'
p3055
(lp3056
(dp3057
g4
g5
sg6
g7
(g8
(I0
tp3058
g10
tp3059
Rp3060
(I1
(I0
I6
tp3061
g17
I00
g20
tp3062
bsasS'P0897__1__900___4000.png'
p3063
(lp3064
(dp3065
g4
g5
sg6
g7
(g8
(I0
tp3066
g10
tp3067
Rp3068
(I1
(I0
I6
tp3069
g17
I00
g20
tp3070
bsasS'P2758__1__3600___2000.png'
p3071
(lp3072
(dp3073
g4
g5
sg6
g7
(g8
(I0
tp3074
g10
tp3075
Rp3076
(I1
(I0
I6
tp3077
g17
I00
g20
tp3078
bsasS'P1332__1__3000___1500.png'
p3079
(lp3080
(dp3081
g4
g5
sg6
g7
(g8
(I0
tp3082
g10
tp3083
Rp3084
(I1
(I0
I6
tp3085
g17
I00
g20
tp3086
bsasS'P0897__1__0___4000.png'
p3087
(lp3088
(dp3089
g4
g5
sg6
g7
(g8
(I0
tp3090
g10
tp3091
Rp3092
(I1
(I0
I6
tp3093
g17
I00
g20
tp3094
bsasS'P1213__1__3600___2000.png'
p3095
(lp3096
(dp3097
g4
g5
sg6
g7
(g8
(I0
tp3098
g10
tp3099
Rp3100
(I1
(I0
I6
tp3101
g17
I00
g20
tp3102
bsasS'P0929__1__0___3000.png'
p3103
(lp3104
(dp3105
g4
g5
sg6
g7
(g8
(I0
tp3106
g10
tp3107
Rp3108
(I1
(I0
I6
tp3109
g17
I00
g20
tp3110
bsasS'P2645__1__900___2000.png'
p3111
(lp3112
(dp3113
g4
g5
sg6
g7
(g8
(I0
tp3114
g10
tp3115
Rp3116
(I1
(I0
I6
tp3117
g17
I00
g20
tp3118
bsasS'P2758__1__4500___2500.png'
p3119
(lp3120
(dp3121
g4
g5
sg6
g7
(g8
(I0
tp3122
g10
tp3123
Rp3124
(I1
(I0
I6
tp3125
g17
I00
g20
tp3126
bsasS'P2286__1__0___500.png'
p3127
(lp3128
(dp3129
g4
g5
sg6
g7
(g8
(I0
tp3130
g10
tp3131
Rp3132
(I1
(I0
I6
tp3133
g17
I00
g20
tp3134
bsasS'P2701__1__900___0.png'
p3135
(lp3136
(dp3137
g4
g5
sg6
g7
(g8
(I0
tp3138
g10
tp3139
Rp3140
(I1
(I0
I6
tp3141
g17
I00
g20
tp3142
bsasS'P1225__1__1800___1500.png'
p3143
(lp3144
(dp3145
g4
g5
sg6
g7
(g8
(I0
tp3146
g10
tp3147
Rp3148
(I1
(I0
I6
tp3149
g17
I00
g20
tp3150
bsasS'P2758__1__1800___3746.png'
p3151
(lp3152
(dp3153
g4
g5
sg6
g7
(g8
(I0
tp3154
g10
tp3155
Rp3156
(I1
(I0
I6
tp3157
g17
I00
g20
tp3158
bsasS'P0259__1__900___1500.png'
p3159
(lp3160
(dp3161
g4
g5
sg6
g7
(g8
(I0
tp3162
g10
tp3163
Rp3164
(I1
(I0
I6
tp3165
g17
I00
g20
tp3166
bsasS'P2758__1__0___3500.png'
p3167
(lp3168
(dp3169
g4
g5
sg6
g7
(g8
(I0
tp3170
g10
tp3171
Rp3172
(I1
(I0
I6
tp3173
g17
I00
g20
tp3174
bsasS'P2678__1__2700___2000.png'
p3175
(lp3176
(dp3177
g4
g5
sg6
g7
(g8
(I0
tp3178
g10
tp3179
Rp3180
(I1
(I0
I6
tp3181
g17
I00
g20
tp3182
bsasS'P2286__1__900___1466.png'
p3183
(lp3184
(dp3185
g4
g5
sg6
g7
(g8
(I0
tp3186
g10
tp3187
Rp3188
(I1
(I0
I6
tp3189
g17
I00
g20
tp3190
bsasS'P2645__1__1800___1500.png'
p3191
(lp3192
(dp3193
g4
g5
sg6
g7
(g8
(I0
tp3194
g10
tp3195
Rp3196
(I1
(I0
I6
tp3197
g17
I00
g20
tp3198
bsasS'P1275__1__1800___2500.png'
p3199
(lp3200
(dp3201
g4
g5
sg6
g7
(g8
(I0
tp3202
g10
tp3203
Rp3204
(I1
(I0
I6
tp3205
g17
I00
g20
tp3206
bsasS'P0945__1__382___500.png'
p3207
(lp3208
(dp3209
g4
g5
sg6
g7
(g8
(I0
tp3210
g10
tp3211
Rp3212
(I1
(I0
I6
tp3213
g17
I00
g20
tp3214
bsasS'P0763__1__0___498.png'
p3215
(lp3216
(dp3217
g4
g5
sg6
g7
(g8
(I0
tp3218
g10
tp3219
Rp3220
(I1
(I0
I6
tp3221
g17
I00
g20
tp3222
bsasS'P2678__1__1800___1500.png'
p3223
(lp3224
(dp3225
g4
g5
sg6
g7
(g8
(I0
tp3226
g10
tp3227
Rp3228
(I1
(I0
I6
tp3229
g17
I00
g20
tp3230
bsasS'P0551__1__0___0.png'
p3231
(lp3232
(dp3233
g4
g5
sg6
g7
(g8
(I0
tp3234
g10
tp3235
Rp3236
(I1
(I0
I6
tp3237
g17
I00
g20
tp3238
bsasS'P0583__1__0___0.png'
p3239
(lp3240
(dp3241
g4
g5
sg6
g7
(g8
(I0
tp3242
g10
tp3243
Rp3244
(I1
(I0
I6
tp3245
g17
I00
g20
tp3246
bsasS'P0414__1__0___0.png'
p3247
(lp3248
(dp3249
g4
g5
sg6
g7
(g8
(I0
tp3250
g10
tp3251
Rp3252
(I1
(I0
I6
tp3253
g17
I00
g20
tp3254
bsasS'P0801__1__1800___0.png'
p3255
(lp3256
(dp3257
g4
g5
sg6
g7
(g8
(I0
tp3258
g10
tp3259
Rp3260
(I1
(I0
I6
tp3261
g17
I00
g20
tp3262
bsasS'P2678__1__900___2000.png'
p3263
(lp3264
(dp3265
g4
g5
sg6
g7
(g8
(I0
tp3266
g10
tp3267
Rp3268
(I1
(I0
I6
tp3269
g17
I00
g20
tp3270
bsasS'P2322__1__0___0.png'
p3271
(lp3272
(dp3273
g4
g5
sg6
g7
(g8
(I0
tp3274
g10
tp3275
Rp3276
(I1
(I0
I6
tp3277
g17
I00
g20
tp3278
bsasS'P1007__1__4500___0.png'
p3279
(lp3280
(dp3281
g4
g5
sg6
g7
(g8
(I0
tp3282
g10
tp3283
Rp3284
(I1
(I0
I6
tp3285
g17
I00
g20
tp3286
bsasS'P2059__1__0___0.png'
p3287
(lp3288
(dp3289
g4
g5
sg6
g7
(g8
(I0
tp3290
g10
tp3291
Rp3292
(I1
(I0
I6
tp3293
g17
I00
g20
tp3294
bsasS'P0128__1__657___500.png'
p3295
(lp3296
(dp3297
g4
g5
sg6
g7
(g8
(I0
tp3298
g10
tp3299
Rp3300
(I1
(I0
I6
tp3301
g17
I00
g20
tp3302
bsasS'P0945__1__382___794.png'
p3303
(lp3304
(dp3305
g4
g5
sg6
g7
(g8
(I0
tp3306
g10
tp3307
Rp3308
(I1
(I0
I6
tp3309
g17
I00
g20
tp3310
bsasS'P0864__1__0___0.png'
p3311
(lp3312
(dp3313
g4
g5
sg6
g7
(g8
(I0
tp3314
g10
tp3315
Rp3316
(I1
(I0
I6
tp3317
g17
I00
g20
tp3318
bsasS'P1314__1__3000___2500.png'
p3319
(lp3320
(dp3321
g4
g5
sg6
g7
(g8
(I0
tp3322
g10
tp3323
Rp3324
(I1
(I0
I6
tp3325
g17
I00
g20
tp3326
bsasS'P0262__1__1284___1000.png'
p3327
(lp3328
(dp3329
g4
g5
sg6
g7
(g8
(I0
tp3330
g10
tp3331
Rp3332
(I1
(I0
I6
tp3333
g17
I00
g20
tp3334
bsasS'P2758__1__4500___1500.png'
p3335
(lp3336
(dp3337
g4
g5
sg6
g7
(g8
(I0
tp3338
g10
tp3339
Rp3340
(I1
(I0
I6
tp3341
g17
I00
g20
tp3342
bsasS'P0696__1__0___0.png'
p3343
(lp3344
(dp3345
g4
g5
sg6
g7
(g8
(I0
tp3346
g10
tp3347
Rp3348
(I1
(I0
I6
tp3349
g17
I00
g20
tp3350
bsasS'P2789__1__2700___2500.png'
p3351
(lp3352
(dp3353
g4
g5
sg6
g7
(g8
(I0
tp3354
g10
tp3355
Rp3356
(I1
(I0
I6
tp3357
g17
I00
g20
tp3358
bsasS'P0725__1__0___498.png'
p3359
(lp3360
(dp3361
g4
g5
sg6
g7
(g8
(I0
tp3362
g10
tp3363
Rp3364
(I1
(I0
I6
tp3365
g17
I00
g20
tp3366
bsasS'P0476__1__146___500.png'
p3367
(lp3368
(dp3369
g4
g5
sg6
g7
(g8
(I0
tp3370
g10
tp3371
Rp3372
(I1
(I0
I6
tp3373
g17
I00
g20
tp3374
bsasS'P0887__1__900___500.png'
p3375
(lp3376
(dp3377
g4
g5
sg6
g7
(g8
(I0
tp3378
g10
tp3379
Rp3380
(I1
(I0
I6
tp3381
g17
I00
g20
tp3382
bsasS'P1273__1__1800___2000.png'
p3383
(lp3384
(dp3385
g4
g5
sg6
g7
(g8
(I0
tp3386
g10
tp3387
Rp3388
(I1
(I0
I6
tp3389
g17
I00
g20
tp3390
bsasS'P1246__1__2700___2000.png'
p3391
(lp3392
(dp3393
g4
g5
sg6
g7
(g8
(I0
tp3394
g10
tp3395
Rp3396
(I1
(I0
I6
tp3397
g17
I00
g20
tp3398
bsasS'P1225__1__3000___1000.png'
p3399
(lp3400
(dp3401
g4
g5
sg6
g7
(g8
(I0
tp3402
g10
tp3403
Rp3404
(I1
(I0
I6
tp3405
g17
I00
g20
tp3406
bsasS'P1314__1__1800___2000.png'
p3407
(lp3408
(dp3409
g4
g5
sg6
g7
(g8
(I0
tp3410
g10
tp3411
Rp3412
(I1
(I0
I6
tp3413
g17
I00
g20
tp3414
bsasS'P0706__1__0___582.png'
p3415
(lp3416
(dp3417
g4
g5
sg6
g7
(g8
(I0
tp3418
g10
tp3419
Rp3420
(I1
(I0
I6
tp3421
g17
I00
g20
tp3422
bsasS'P2645__1__2700___0.png'
p3423
(lp3424
(dp3425
g4
g5
sg6
g7
(g8
(I0
tp3426
g10
tp3427
Rp3428
(I1
(I0
I6
tp3429
g17
I00
g20
tp3430
bsasS'P2733__1__1800___2012.png'
p3431
(lp3432
(dp3433
g4
g5
sg6
g7
(g8
(I0
tp3434
g10
tp3435
Rp3436
(I1
(I0
I6
tp3437
g17
I00
g20
tp3438
bsasS'P0897__1__900___500.png'
p3439
(lp3440
(dp3441
g4
g5
sg6
g7
(g8
(I0
tp3442
g10
tp3443
Rp3444
(I1
(I0
I6
tp3445
g17
I00
g20
tp3446
bsasS'P1007__1__4500___500.png'
p3447
(lp3448
(dp3449
g4
g5
sg6
g7
(g8
(I0
tp3450
g10
tp3451
Rp3452
(I1
(I0
I6
tp3453
g17
I00
g20
tp3454
bsasS'P0977__1__900___1000.png'
p3455
(lp3456
(dp3457
g4
g5
sg6
g7
(g8
(I0
tp3458
g10
tp3459
Rp3460
(I1
(I0
I6
tp3461
g17
I00
g20
tp3462
bsasS'P2758__1__2700___3746.png'
p3463
(lp3464
(dp3465
g4
g5
sg6
g7
(g8
(I0
tp3466
g10
tp3467
Rp3468
(I1
(I0
I6
tp3469
g17
I00
g20
tp3470
bsasS'P0336__1__1885___500.png'
p3471
(lp3472
(dp3473
g4
g5
sg6
g7
(g8
(I0
tp3474
g10
tp3475
Rp3476
(I1
(I0
I6
tp3477
g17
I00
g20
tp3478
bsasS'P0706__1__0___500.png'
p3479
(lp3480
(dp3481
g4
g5
sg6
g7
(g8
(I0
tp3482
g10
tp3483
Rp3484
(I1
(I0
I6
tp3485
g17
I00
g20
tp3486
bsasS'P2771__1__1497___0.png'
p3487
(lp3488
(dp3489
g4
g5
sg6
g7
(g8
(I0
tp3490
g10
tp3491
Rp3492
(I1
(I0
I6
tp3493
g17
I00
g20
tp3494
bsasS'P1386__1__3626___2000.png'
p3495
(lp3496
(dp3497
g4
g5
sg6
g7
(g8
(I0
tp3498
g10
tp3499
Rp3500
(I1
(I0
I6
tp3501
g17
I00
g20
tp3502
bsasS'P1314__1__2700___2500.png'
p3503
(lp3504
(dp3505
g4
g5
sg6
g7
(g8
(I0
tp3506
g10
tp3507
Rp3508
(I1
(I0
I6
tp3509
g17
I00
g20
tp3510
bsasS'P2285__1__900___1000.png'
p3511
(lp3512
(dp3513
g4
g5
sg6
g7
(g8
(I0
tp3514
g10
tp3515
Rp3516
(I1
(I0
I6
tp3517
g17
I00
g20
tp3518
bsasS'P1219__1__900___2000.png'
p3519
(lp3520
(dp3521
g4
g5
sg6
g7
(g8
(I0
tp3522
g10
tp3523
Rp3524
(I1
(I0
I6
tp3525
g17
I00
g20
tp3526
bsasS'P2789__1__3600___3897.png'
p3527
(lp3528
(dp3529
g4
g5
sg6
g7
(g8
(I0
tp3530
g10
tp3531
Rp3532
(I1
(I0
I6
tp3533
g17
I00
g20
tp3534
bsasS'P0799__1__327___1291.png'
p3535
(lp3536
(dp3537
g4
g5
sg6
g7
(g8
(I0
tp3538
g10
tp3539
Rp3540
(I1
(I0
I6
tp3541
g17
I00
g20
tp3542
bsasS'P2789__1__3600___3500.png'
p3543
(lp3544
(dp3545
g4
g5
sg6
g7
(g8
(I0
tp3546
g10
tp3547
Rp3548
(I1
(I0
I6
tp3549
g17
I00
g20
tp3550
bsasS'P1234__1__900___1000.png'
p3551
(lp3552
(dp3553
g4
g5
sg6
g7
(g8
(I0
tp3554
g10
tp3555
Rp3556
(I1
(I0
I6
tp3557
g17
I00
g20
tp3558
bsasS'P2789__1__900___3500.png'
p3559
(lp3560
(dp3561
g4
g5
sg6
g7
(g8
(I0
tp3562
g10
tp3563
Rp3564
(I1
(I0
I6
tp3565
g17
I00
g20
tp3566
bsasS'P1225__1__1800___1000.png'
p3567
(lp3568
(dp3569
g4
g5
sg6
g7
(g8
(I0
tp3570
g10
tp3571
Rp3572
(I1
(I0
I6
tp3573
g17
I00
g20
tp3574
bsasS'P1090__1__1173___800.png'
p3575
(lp3576
(dp3577
g4
g5
sg6
g7
(g8
(I0
tp3578
g10
tp3579
Rp3580
(I1
(I0
I6
tp3581
g17
I00
g20
tp3582
bsasS'P2285__1__1800___2500.png'
p3583
(lp3584
(dp3585
g4
g5
sg6
g7
(g8
(I0
tp3586
g10
tp3587
Rp3588
(I1
(I0
I6
tp3589
g17
I00
g20
tp3590
bsasS'P1386__1__900___1500.png'
p3591
(lp3592
(dp3593
g4
g5
sg6
g7
(g8
(I0
tp3594
g10
tp3595
Rp3596
(I1
(I0
I6
tp3597
g17
I00
g20
tp3598
bsasS'P0977__1__900___1617.png'
p3599
(lp3600
(dp3601
g4
g5
sg6
g7
(g8
(I0
tp3602
g10
tp3603
Rp3604
(I1
(I0
I6
tp3605
g17
I00
g20
tp3606
bsasS'P1090__1__1173___500.png'
p3607
(lp3608
(dp3609
g4
g5
sg6
g7
(g8
(I0
tp3610
g10
tp3611
Rp3612
(I1
(I0
I6
tp3613
g17
I00
g20
tp3614
bsasS'P0945__1__0___794.png'
p3615
(lp3616
(dp3617
g4
g5
sg6
g7
(g8
(I0
tp3618
g10
tp3619
Rp3620
(I1
(I0
I6
tp3621
g17
I00
g20
tp3622
bsasS'P2678__1__0___1500.png'
p3623
(lp3624
(dp3625
g4
g5
sg6
g7
(g8
(I0
tp3626
g10
tp3627
Rp3628
(I1
(I0
I6
tp3629
g17
I00
g20
tp3630
bsasS'P0838__1__0___1000.png'
p3631
(lp3632
(dp3633
g4
g5
sg6
g7
(g8
(I0
tp3634
g10
tp3635
Rp3636
(I1
(I0
I6
tp3637
g17
I00
g20
tp3638
bsasS'P2789__1__3600___2500.png'
p3639
(lp3640
(dp3641
g4
g5
sg6
g7
(g8
(I0
tp3642
g10
tp3643
Rp3644
(I1
(I0
I6
tp3645
g17
I00
g20
tp3646
bsasS'P2758__1__0___500.png'
p3647
(lp3648
(dp3649
g4
g5
sg6
g7
(g8
(I0
tp3650
g10
tp3651
Rp3652
(I1
(I0
I6
tp3653
g17
I00
g20
tp3654
bsasS'P0897__1__1331___1500.png'
p3655
(lp3656
(dp3657
g4
g5
sg6
g7
(g8
(I0
tp3658
g10
tp3659
Rp3660
(I1
(I0
I6
tp3661
g17
I00
g20
tp3662
bsasS'P2758__1__5400___0.png'
p3663
(lp3664
(dp3665
g4
g5
sg6
g7
(g8
(I0
tp3666
g10
tp3667
Rp3668
(I1
(I0
I6
tp3669
g17
I00
g20
tp3670
bsasS'P0525__1__0___714.png'
p3671
(lp3672
(dp3673
g4
g5
sg6
g7
(g8
(I0
tp3674
g10
tp3675
Rp3676
(I1
(I0
I6
tp3677
g17
I00
g20
tp3678
bsasS'P0801__1__1800___1110.png'
p3679
(lp3680
(dp3681
g4
g5
sg6
g7
(g8
(I0
tp3682
g10
tp3683
Rp3684
(I1
(I0
I6
tp3685
g17
I00
g20
tp3686
bsasS'P1242__1__1800___500.png'
p3687
(lp3688
(dp3689
g4
g5
sg6
g7
(g8
(I0
tp3690
g10
tp3691
Rp3692
(I1
(I0
I6
tp3693
g17
I00
g20
tp3694
bsasS'P0262__1__1284___0.png'
p3695
(lp3696
(dp3697
g4
g5
sg6
g7
(g8
(I0
tp3698
g10
tp3699
Rp3700
(I1
(I0
I6
tp3701
g17
I00
g20
tp3702
bsasS'P1242__1__900___1000.png'
p3703
(lp3704
(dp3705
g4
g5
sg6
g7
(g8
(I0
tp3706
g10
tp3707
Rp3708
(I1
(I0
I6
tp3709
g17
I00
g20
tp3710
bsasS'P0019__1__2700___3127.png'
p3711
(lp3712
(dp3713
g4
g5
sg6
g7
(g8
(I0
tp3714
g10
tp3715
Rp3716
(I1
(I0
I6
tp3717
g17
I00
g20
tp3718
bsasS'P2294__1__0___0.png'
p3719
(lp3720
(dp3721
g4
g5
sg6
g7
(g8
(I0
tp3722
g10
tp3723
Rp3724
(I1
(I0
I6
tp3725
g17
I00
g20
tp3726
bsasS'P0839__1__0___500.png'
p3727
(lp3728
(dp3729
g4
g5
sg6
g7
(g8
(I0
tp3730
g10
tp3731
Rp3732
(I1
(I0
I6
tp3733
g17
I00
g20
tp3734
bsasS'P1386__1__3600___2000.png'
p3735
(lp3736
(dp3737
g4
g5
sg6
g7
(g8
(I0
tp3738
g10
tp3739
Rp3740
(I1
(I0
I6
tp3741
g17
I00
g20
tp3742
bsasS'P0128__1__0___1418.png'
p3743
(lp3744
(dp3745
g4
g5
sg6
g7
(g8
(I0
tp3746
g10
tp3747
Rp3748
(I1
(I0
I6
tp3749
g17
I00
g20
tp3750
bsasS'P1332__1__1800___500.png'
p3751
(lp3752
(dp3753
g4
g5
sg6
g7
(g8
(I0
tp3754
g10
tp3755
Rp3756
(I1
(I0
I6
tp3757
g17
I00
g20
tp3758
bsasS'P0683__1__1029___1500.png'
p3759
(lp3760
(dp3761
g4
g5
sg6
g7
(g8
(I0
tp3762
g10
tp3763
Rp3764
(I1
(I0
I6
tp3765
g17
I00
g20
tp3766
bsasS'P0262__1__900___500.png'
p3767
(lp3768
(dp3769
g4
g5
sg6
g7
(g8
(I0
tp3770
g10
tp3771
Rp3772
(I1
(I0
I6
tp3773
g17
I00
g20
tp3774
bsasS'P1860__1__900___1138.png'
p3775
(lp3776
(dp3777
g4
g5
sg6
g7
(g8
(I0
tp3778
g10
tp3779
Rp3780
(I1
(I0
I6
tp3781
g17
I00
g20
tp3782
bsasS'P0432__1__0___230.png'
p3783
(lp3784
(dp3785
g4
g5
sg6
g7
(g8
(I0
tp3786
g10
tp3787
Rp3788
(I1
(I0
I6
tp3789
g17
I00
g20
tp3790
bsasS'P1066__1__699___1500.png'
p3791
(lp3792
(dp3793
g4
g5
sg6
g7
(g8
(I0
tp3794
g10
tp3795
Rp3796
(I1
(I0
I6
tp3797
g17
I00
g20
tp3798
bsasS'P1275__1__1800___2000.png'
p3799
(lp3800
(dp3801
g4
g5
sg6
g7
(g8
(I0
tp3802
g10
tp3803
Rp3804
(I1
(I0
I6
tp3805
g17
I00
g20
tp3806
bsasS'P2733__1__1827___500.png'
p3807
(lp3808
(dp3809
g4
g5
sg6
g7
(g8
(I0
tp3810
g10
tp3811
Rp3812
(I1
(I0
I6
tp3813
g17
I00
g20
tp3814
bsasS'P0929__1__0___1000.png'
p3815
(lp3816
(dp3817
g4
g5
sg6
g7
(g8
(I0
tp3818
g10
tp3819
Rp3820
(I1
(I0
I6
tp3821
g17
I00
g20
tp3822
bsasS'P0761__1__0___500.png'
p3823
(lp3824
(dp3825
g4
g5
sg6
g7
(g8
(I0
tp3826
g10
tp3827
Rp3828
(I1
(I0
I6
tp3829
g17
I00
g20
tp3830
bsasS'P0053__1__409___821.png'
p3831
(lp3832
(dp3833
g4
g5
sg6
g7
(g8
(I0
tp3834
g10
tp3835
Rp3836
(I1
(I0
I6
tp3837
g17
I00
g20
tp3838
bsasS'P0259__1__900___500.png'
p3839
(lp3840
(dp3841
g4
g5
sg6
g7
(g8
(I0
tp3842
g10
tp3843
Rp3844
(I1
(I0
I6
tp3845
g17
I00
g20
tp3846
bsasS'P0476__1__0___500.png'
p3847
(lp3848
(dp3849
g4
g5
sg6
g7
(g8
(I0
tp3850
g10
tp3851
Rp3852
(I1
(I0
I6
tp3853
g17
I00
g20
tp3854
bsasS'P0525__1__0___500.png'
p3855
(lp3856
(dp3857
g4
g5
sg6
g7
(g8
(I0
tp3858
g10
tp3859
Rp3860
(I1
(I0
I6
tp3861
g17
I00
g20
tp3862
bsasS'P2789__1__1800___3897.png'
p3863
(lp3864
(dp3865
g4
g5
sg6
g7
(g8
(I0
tp3866
g10
tp3867
Rp3868
(I1
(I0
I6
tp3869
g17
I00
g20
tp3870
bsasS'P0336__1__1800___805.png'
p3871
(lp3872
(dp3873
g4
g5
sg6
g7
(g8
(I0
tp3874
g10
tp3875
Rp3876
(I1
(I0
I6
tp3877
g17
I00
g20
tp3878
bsasS'P0929__1__0___1500.png'
p3879
(lp3880
(dp3881
g4
g5
sg6
g7
(g8
(I0
tp3882
g10
tp3883
Rp3884
(I1
(I0
I6
tp3885
g17
I00
g20
tp3886
bsasS'P0945__1__0___0.png'
p3887
(lp3888
(dp3889
g4
g5
sg6
g7
(g8
(I0
tp3890
g10
tp3891
Rp3892
(I1
(I0
I6
tp3893
g17
I00
g20
tp3894
bsasS'P0839__1__0___1754.png'
p3895
(lp3896
(dp3897
g4
g5
sg6
g7
(g8
(I0
tp3898
g10
tp3899
Rp3900
(I1
(I0
I6
tp3901
g17
I00
g20
tp3902
bsasS'P0837__1__684___1500.png'
p3903
(lp3904
(dp3905
g4
g5
sg6
g7
(g8
(I0
tp3906
g10
tp3907
Rp3908
(I1
(I0
I6
tp3909
g17
I00
g20
tp3910
bsasS'P0936__1__1800___500.png'
p3911
(lp3912
(dp3913
g4
g5
sg6
g7
(g8
(I0
tp3914
g10
tp3915
Rp3916
(I1
(I0
I6
tp3917
g17
I00
g20
tp3918
bsasS'P0864__1__900___1444.png'
p3919
(lp3920
(dp3921
g4
g5
sg6
g7
(g8
(I0
tp3922
g10
tp3923
Rp3924
(I1
(I0
I6
tp3925
g17
I00
g20
tp3926
bsasS'P1075__1__0___500.png'
p3927
(lp3928
(dp3929
g4
g5
sg6
g7
(g8
(I0
tp3930
g10
tp3931
Rp3932
(I1
(I0
I6
tp3933
g17
I00
g20
tp3934
bsasS'P0715__1__0___1000.png'
p3935
(lp3936
(dp3937
g4
g5
sg6
g7
(g8
(I0
tp3938
g10
tp3939
Rp3940
(I1
(I0
I6
tp3941
g17
I00
g20
tp3942
bsasS'P1386__1__900___1000.png'
p3943
(lp3944
(dp3945
g4
g5
sg6
g7
(g8
(I0
tp3946
g10
tp3947
Rp3948
(I1
(I0
I6
tp3949
g17
I00
g20
tp3950
bsasS'P2789__1__900___3000.png'
p3951
(lp3952
(dp3953
g4
g5
sg6
g7
(g8
(I0
tp3954
g10
tp3955
Rp3956
(I1
(I0
I6
tp3957
g17
I00
g20
tp3958
bsasS'P0432__1__0___0.png'
p3959
(lp3960
(dp3961
g4
g5
sg6
g7
(g8
(I0
tp3962
g10
tp3963
Rp3964
(I1
(I0
I6
tp3965
g17
I00
g20
tp3966
bsasS'P2709__1__1800___1814.png'
p3967
(lp3968
(dp3969
g4
g5
sg6
g7
(g8
(I0
tp3970
g10
tp3971
Rp3972
(I1
(I0
I6
tp3973
g17
I00
g20
tp3974
bsasS'P1257__1__1800___3400.png'
p3975
(lp3976
(dp3977
g4
g5
sg6
g7
(g8
(I0
tp3978
g10
tp3979
Rp3980
(I1
(I0
I6
tp3981
g17
I00
g20
tp3982
bsasS'P0977__1__0___1500.png'
p3983
(lp3984
(dp3985
g4
g5
sg6
g7
(g8
(I0
tp3986
g10
tp3987
Rp3988
(I1
(I0
I6
tp3989
g17
I00
g20
tp3990
bsasS'P1075__1__0___2500.png'
p3991
(lp3992
(dp3993
g4
g5
sg6
g7
(g8
(I0
tp3994
g10
tp3995
Rp3996
(I1
(I0
I6
tp3997
g17
I00
g20
tp3998
bsasS'P1257__1__1800___3000.png'
p3999
(lp4000
(dp4001
g4
g5
sg6
g7
(g8
(I0
tp4002
g10
tp4003
Rp4004
(I1
(I0
I6
tp4005
g17
I00
g20
tp4006
bsasS'P0837__1__0___1000.png'
p4007
(lp4008
(dp4009
g4
g5
sg6
g7
(g8
(I0
tp4010
g10
tp4011
Rp4012
(I1
(I0
I6
tp4013
g17
I00
g20
tp4014
bsasS'P2789__1__2700___2000.png'
p4015
(lp4016
(dp4017
g4
g5
sg6
g7
(g8
(I0
tp4018
g10
tp4019
Rp4020
(I1
(I0
I6
tp4021
g17
I00
g20
tp4022
bsasS'P0977__1__0___500.png'
p4023
(lp4024
(dp4025
g4
g5
sg6
g7
(g8
(I0
tp4026
g10
tp4027
Rp4028
(I1
(I0
I6
tp4029
g17
I00
g20
tp4030
bsasS'P1212__1__3000___3000.png'
p4031
(lp4032
(dp4033
g4
g5
sg6
g7
(g8
(I0
tp4034
g10
tp4035
Rp4036
(I1
(I0
I6
tp4037
g17
I00
g20
tp4038
bsasS'P0259__1__1250___1669.png'
p4039
(lp4040
(dp4041
g4
g5
sg6
g7
(g8
(I0
tp4042
g10
tp4043
Rp4044
(I1
(I0
I6
tp4045
g17
I00
g20
tp4046
bsasS'P0336__1__1885___805.png'
p4047
(lp4048
(dp4049
g4
g5
sg6
g7
(g8
(I0
tp4050
g10
tp4051
Rp4052
(I1
(I0
I6
tp4053
g17
I00
g20
tp4054
bsasS'P1246__1__3000___2000.png'
p4055
(lp4056
(dp4057
g4
g5
sg6
g7
(g8
(I0
tp4058
g10
tp4059
Rp4060
(I1
(I0
I6
tp4061
g17
I00
g20
tp4062
bsasS'P1332__1__1800___1000.png'
p4063
(lp4064
(dp4065
g4
g5
sg6
g7
(g8
(I0
tp4066
g10
tp4067
Rp4068
(I1
(I0
I6
tp4069
g17
I00
g20
tp4070
bsasS'P0929__1__0___2500.png'
p4071
(lp4072
(dp4073
g4
g5
sg6
g7
(g8
(I0
tp4074
g10
tp4075
Rp4076
(I1
(I0
I6
tp4077
g17
I00
g20
tp4078
bsasS'P2726__1__1832___1500.png'
p4079
(lp4080
(dp4081
g4
g5
sg6
g7
(g8
(I0
tp4082
g10
tp4083
Rp4084
(I1
(I0
I6
tp4085
g17
I00
g20
tp4086
bsasS'P0696__1__539___1537.png'
p4087
(lp4088
(dp4089
g4
g5
sg6
g7
(g8
(I0
tp4090
g10
tp4091
Rp4092
(I1
(I0
I6
tp4093
g17
I00
g20
tp4094
bsasS'P2794__1__0___3500.png'
p4095
(lp4096
(dp4097
g4
g5
sg6
g7
(g8
(I0
tp4098
g10
tp4099
Rp4100
(I1
(I0
I6
tp4101
g17
I00
g20
tp4102
bsasS'P0795__1__0___1837.png'
p4103
(lp4104
(dp4105
g4
g5
sg6
g7
(g8
(I0
tp4106
g10
tp4107
Rp4108
(I1
(I0
I6
tp4109
g17
I00
g20
tp4110
bsasS'P2678__1__0___0.png'
p4111
(lp4112
(dp4113
g4
g5
sg6
g7
(g8
(I0
tp4114
g10
tp4115
Rp4116
(I1
(I0
I6
tp4117
g17
I00
g20
tp4118
bsasS'P0838__1__306___500.png'
p4119
(lp4120
(dp4121
g4
g5
sg6
g7
(g8
(I0
tp4122
g10
tp4123
Rp4124
(I1
(I0
I6
tp4125
g17
I00
g20
tp4126
bsasS'P0936__1__1800___558.png'
p4127
(lp4128
(dp4129
g4
g5
sg6
g7
(g8
(I0
tp4130
g10
tp4131
Rp4132
(I1
(I0
I6
tp4133
g17
I00
g20
tp4134
bsasS'P2645__1__1800___1000.png'
p4135
(lp4136
(dp4137
g4
g5
sg6
g7
(g8
(I0
tp4138
g10
tp4139
Rp4140
(I1
(I0
I6
tp4141
g17
I00
g20
tp4142
bsasS'P1225__1__3000___500.png'
p4143
(lp4144
(dp4145
g4
g5
sg6
g7
(g8
(I0
tp4146
g10
tp4147
Rp4148
(I1
(I0
I6
tp4149
g17
I00
g20
tp4150
bsasS'P0019__1__2700___3000.png'
p4151
(lp4152
(dp4153
g4
g5
sg6
g7
(g8
(I0
tp4154
g10
tp4155
Rp4156
(I1
(I0
I6
tp4157
g17
I00
g20
tp4158
bsasS'P0838__1__306___0.png'
p4159
(lp4160
(dp4161
g4
g5
sg6
g7
(g8
(I0
tp4162
g10
tp4163
Rp4164
(I1
(I0
I6
tp4165
g17
I00
g20
tp4166
bsasS'P2726__1__1800___0.png'
p4167
(lp4168
(dp4169
g4
g5
sg6
g7
(g8
(I0
tp4170
g10
tp4171
Rp4172
(I1
(I0
I6
tp4173
g17
I00
g20
tp4174
bsasS'P2758__1__900___1000.png'
p4175
(lp4176
(dp4177
g4
g5
sg6
g7
(g8
(I0
tp4178
g10
tp4179
Rp4180
(I1
(I0
I6
tp4181
g17
I00
g20
tp4182
bsasS'P1266__1__3000___500.png'
p4183
(lp4184
(dp4185
g4
g5
sg6
g7
(g8
(I0
tp4186
g10
tp4187
Rp4188
(I1
(I0
I6
tp4189
g17
I00
g20
tp4190
bsasS'P0704__1__1136___500.png'
p4191
(lp4192
(dp4193
g4
g5
sg6
g7
(g8
(I0
tp4194
g10
tp4195
Rp4196
(I1
(I0
I6
tp4197
g17
I00
g20
tp4198
bsasS'P1275__1__3000___1000.png'
p4199
(lp4200
(dp4201
g4
g5
sg6
g7
(g8
(I0
tp4202
g10
tp4203
Rp4204
(I1
(I0
I6
tp4205
g17
I00
g20
tp4206
bsasS'P1066__1__0___2000.png'
p4207
(lp4208
(dp4209
g4
g5
sg6
g7
(g8
(I0
tp4210
g10
tp4211
Rp4212
(I1
(I0
I6
tp4213
g17
I00
g20
tp4214
bsasS'P1242__1__900___500.png'
p4215
(lp4216
(dp4217
g4
g5
sg6
g7
(g8
(I0
tp4218
g10
tp4219
Rp4220
(I1
(I0
I6
tp4221
g17
I00
g20
tp4222
bsasS'P0761__1__0___0.png'
p4223
(lp4224
(dp4225
g4
g5
sg6
g7
(g8
(I0
tp4226
g10
tp4227
Rp4228
(I1
(I0
I6
tp4229
g17
I00
g20
tp4230
bsasS'P0977__1__0___1000.png'
p4231
(lp4232
(dp4233
g4
g5
sg6
g7
(g8
(I0
tp4234
g10
tp4235
Rp4236
(I1
(I0
I6
tp4237
g17
I00
g20
tp4238
bsasS'P2285__1__1800___2000.png'
p4239
(lp4240
(dp4241
g4
g5
sg6
g7
(g8
(I0
tp4242
g10
tp4243
Rp4244
(I1
(I0
I6
tp4245
g17
I00
g20
tp4246
bsasS'P0019__1__5573___2500.png'
p4247
(lp4248
(dp4249
g4
g5
sg6
g7
(g8
(I0
tp4250
g10
tp4251
Rp4252
(I1
(I0
I6
tp4253
g17
I00
g20
tp4254
bsasS'P1234__1__3000___0.png'
p4255
(lp4256
(dp4257
g4
g5
sg6
g7
(g8
(I0
tp4258
g10
tp4259
Rp4260
(I1
(I0
I6
tp4261
g17
I00
g20
tp4262
bsasS'P1332__1__1800___1500.png'
p4263
(lp4264
(dp4265
g4
g5
sg6
g7
(g8
(I0
tp4266
g10
tp4267
Rp4268
(I1
(I0
I6
tp4269
g17
I00
g20
tp4270
bsasS'P0795__1__0___0.png'
p4271
(lp4272
(dp4273
g4
g5
sg6
g7
(g8
(I0
tp4274
g10
tp4275
Rp4276
(I1
(I0
I6
tp4277
g17
I00
g20
tp4278
bsasS'P2758__1__2700___2500.png'
p4279
(lp4280
(dp4281
g4
g5
sg6
g7
(g8
(I0
tp4282
g10
tp4283
Rp4284
(I1
(I0
I6
tp4285
g17
I00
g20
tp4286
bsasS'P1273__1__1800___2500.png'
p4287
(lp4288
(dp4289
g4
g5
sg6
g7
(g8
(I0
tp4290
g10
tp4291
Rp4292
(I1
(I0
I6
tp4293
g17
I00
g20
tp4294
bsasS'P0749__1__439___224.png'
p4295
(lp4296
(dp4297
g4
g5
sg6
g7
(g8
(I0
tp4298
g10
tp4299
Rp4300
(I1
(I0
I6
tp4301
g17
I00
g20
tp4302
bsasS'P0837__1__0___2120.png'
p4303
(lp4304
(dp4305
g4
g5
sg6
g7
(g8
(I0
tp4306
g10
tp4307
Rp4308
(I1
(I0
I6
tp4309
g17
I00
g20
tp4310
bsasS'P0414__1__0___486.png'
p4311
(lp4312
(dp4313
g4
g5
sg6
g7
(g8
(I0
tp4314
g10
tp4315
Rp4316
(I1
(I0
I6
tp4317
g17
I00
g20
tp4318
bsasS'P0897__1__1331___2000.png'
p4319
(lp4320
(dp4321
g4
g5
sg6
g7
(g8
(I0
tp4322
g10
tp4323
Rp4324
(I1
(I0
I6
tp4325
g17
I00
g20
tp4326
bsasS'P1429__1__0___2200.png'
p4327
(lp4328
(dp4329
g4
g5
sg6
g7
(g8
(I0
tp4330
g10
tp4331
Rp4332
(I1
(I0
I6
tp4333
g17
I00
g20
tp4334
bsasS'P1429__1__0___2000.png'
p4335
(lp4336
(dp4337
g4
g5
sg6
g7
(g8
(I0
tp4338
g10
tp4339
Rp4340
(I1
(I0
I6
tp4341
g17
I00
g20
tp4342
bsasS'P1356__1__900___1000.png'
p4343
(lp4344
(dp4345
g4
g5
sg6
g7
(g8
(I0
tp4346
g10
tp4347
Rp4348
(I1
(I0
I6
tp4349
g17
I00
g20
tp4350
bsasS'P1273__1__1800___3020.png'
p4351
(lp4352
(dp4353
g4
g5
sg6
g7
(g8
(I0
tp4354
g10
tp4355
Rp4356
(I1
(I0
I6
tp4357
g17
I00
g20
tp4358
bsasS'P0799__1__0___1291.png'
p4359
(lp4360
(dp4361
g4
g5
sg6
g7
(g8
(I0
tp4362
g10
tp4363
Rp4364
(I1
(I0
I6
tp4365
g17
I00
g20
tp4366
bsasS'P0864__1__2071___1444.png'
p4367
(lp4368
(dp4369
g4
g5
sg6
g7
(g8
(I0
tp4370
g10
tp4371
Rp4372
(I1
(I0
I6
tp4373
g17
I00
g20
tp4374
bsasS'P1356__1__900___2500.png'
p4375
(lp4376
(dp4377
g4
g5
sg6
g7
(g8
(I0
tp4378
g10
tp4379
Rp4380
(I1
(I0
I6
tp4381
g17
I00
g20
tp4382
bsasS'P0300__1__0___239.png'
p4383
(lp4384
(dp4385
g4
g5
sg6
g7
(g8
(I0
tp4386
g10
tp4387
Rp4388
(I1
(I0
I6
tp4389
g17
I00
g20
tp4390
bsasS'P2678__1__900___500.png'
p4391
(lp4392
(dp4393
g4
g5
sg6
g7
(g8
(I0
tp4394
g10
tp4395
Rp4396
(I1
(I0
I6
tp4397
g17
I00
g20
tp4398
bsasS'P1356__1__0___1500.png'
p4399
(lp4400
(dp4401
g4
g5
sg6
g7
(g8
(I0
tp4402
g10
tp4403
Rp4404
(I1
(I0
I6
tp4405
g17
I00
g20
tp4406
bsasS'P1275__1__0___2500.png'
p4407
(lp4408
(dp4409
g4
g5
sg6
g7
(g8
(I0
tp4410
g10
tp4411
Rp4412
(I1
(I0
I6
tp4413
g17
I00
g20
tp4414
bsasS'P1332__1__2700___500.png'
p4415
(lp4416
(dp4417
g4
g5
sg6
g7
(g8
(I0
tp4418
g10
tp4419
Rp4420
(I1
(I0
I6
tp4421
g17
I00
g20
tp4422
bsasS'P1266__1__2700___0.png'
p4423
(lp4424
(dp4425
g4
g5
sg6
g7
(g8
(I0
tp4426
g10
tp4427
Rp4428
(I1
(I0
I6
tp4429
g17
I00
g20
tp4430
bsasS'P1266__1__2700___500.png'
p4431
(lp4432
(dp4433
g4
g5
sg6
g7
(g8
(I0
tp4434
g10
tp4435
Rp4436
(I1
(I0
I6
tp4437
g17
I00
g20
tp4438
bsasS'P1315__1__2700___2000.png'
p4439
(lp4440
(dp4441
g4
g5
sg6
g7
(g8
(I0
tp4442
g10
tp4443
Rp4444
(I1
(I0
I6
tp4445
g17
I00
g20
tp4446
bsasS'P2771__1__900___500.png'
p4447
(lp4448
(dp4449
g4
g5
sg6
g7
(g8
(I0
tp4450
g10
tp4451
Rp4452
(I1
(I0
I6
tp4453
g17
I00
g20
tp4454
bsasS'P2758__1__0___1500.png'
p4455
(lp4456
(dp4457
g4
g5
sg6
g7
(g8
(I0
tp4458
g10
tp4459
Rp4460
(I1
(I0
I6
tp4461
g17
I00
g20
tp4462
bsasS'P0262__1__900___0.png'
p4463
(lp4464
(dp4465
g4
g5
sg6
g7
(g8
(I0
tp4466
g10
tp4467
Rp4468
(I1
(I0
I6
tp4469
g17
I00
g20
tp4470
bsasS'P2429__1__0___0.png'
p4471
(lp4472
(dp4473
g4
g5
sg6
g7
(g8
(I0
tp4474
g10
tp4475
Rp4476
(I1
(I0
I6
tp4477
g17
I00
g20
tp4478
bsasS'P0261__1__414___498.png'
p4479
(lp4480
(dp4481
g4
g5
sg6
g7
(g8
(I0
tp4482
g10
tp4483
Rp4484
(I1
(I0
I6
tp4485
g17
I00
g20
tp4486
bsasS'P1356__1__0___0.png'
p4487
(lp4488
(dp4489
g4
g5
sg6
g7
(g8
(I0
tp4490
g10
tp4491
Rp4492
(I1
(I0
I6
tp4493
g17
I00
g20
tp4494
bsasS'P0261__1__414___0.png'
p4495
(lp4496
(dp4497
g4
g5
sg6
g7
(g8
(I0
tp4498
g10
tp4499
Rp4500
(I1
(I0
I6
tp4501
g17
I00
g20
tp4502
bsasS'P2789__1__2700___1500.png'
p4503
(lp4504
(dp4505
g4
g5
sg6
g7
(g8
(I0
tp4506
g10
tp4507
Rp4508
(I1
(I0
I6
tp4509
g17
I00
g20
tp4510
bsasS'P1386__1__3600___1500.png'
p4511
(lp4512
(dp4513
g4
g5
sg6
g7
(g8
(I0
tp4514
g10
tp4515
Rp4516
(I1
(I0
I6
tp4517
g17
I00
g20
tp4518
bsasS'P2758__1__0___3000.png'
p4519
(lp4520
(dp4521
g4
g5
sg6
g7
(g8
(I0
tp4522
g10
tp4523
Rp4524
(I1
(I0
I6
tp4525
g17
I00
g20
tp4526
bsasS'P0715__1__330___1000.png'
p4527
(lp4528
(dp4529
g4
g5
sg6
g7
(g8
(I0
tp4530
g10
tp4531
Rp4532
(I1
(I0
I6
tp4533
g17
I00
g20
tp4534
bsasS'P2726__1__1800___2000.png'
p4535
(lp4536
(dp4537
g4
g5
sg6
g7
(g8
(I0
tp4538
g10
tp4539
Rp4540
(I1
(I0
I6
tp4541
g17
I00
g20
tp4542
bsasS'P0420__1__0___518.png'
p4543
(lp4544
(dp4545
g4
g5
sg6
g7
(g8
(I0
tp4546
g10
tp4547
Rp4548
(I1
(I0
I6
tp4549
g17
I00
g20
tp4550
bsasS'P1275__1__2700___3400.png'
p4551
(lp4552
(dp4553
g4
g5
sg6
g7
(g8
(I0
tp4554
g10
tp4555
Rp4556
(I1
(I0
I6
tp4557
g17
I00
g20
tp4558
bsasS'P0683__1__1029___0.png'
p4559
(lp4560
(dp4561
g4
g5
sg6
g7
(g8
(I0
tp4562
g10
tp4563
Rp4564
(I1
(I0
I6
tp4565
g17
I00
g20
tp4566
bsasS'P1356__1__900___3400.png'
p4567
(lp4568
(dp4569
g4
g5
sg6
g7
(g8
(I0
tp4570
g10
tp4571
Rp4572
(I1
(I0
I6
tp4573
g17
I00
g20
tp4574
bsasS'P2645__1__1800___0.png'
p4575
(lp4576
(dp4577
g4
g5
sg6
g7
(g8
(I0
tp4578
g10
tp4579
Rp4580
(I1
(I0
I6
tp4581
g17
I00
g20
tp4582
bsasS'P0110__1__1564___0.png'
p4583
(lp4584
(dp4585
g4
g5
sg6
g7
(g8
(I0
tp4586
g10
tp4587
Rp4588
(I1
(I0
I6
tp4589
g17
I00
g20
tp4590
bsasS'P0557__1__0___0.png'
p4591
(lp4592
(dp4593
g4
g5
sg6
g7
(g8
(I0
tp4594
g10
tp4595
Rp4596
(I1
(I0
I6
tp4597
g17
I00
g20
tp4598
bsasS'P2726__1__1832___1000.png'
p4599
(lp4600
(dp4601
g4
g5
sg6
g7
(g8
(I0
tp4602
g10
tp4603
Rp4604
(I1
(I0
I6
tp4605
g17
I00
g20
tp4606
bsasS'P2794__1__1800___500.png'
p4607
(lp4608
(dp4609
g4
g5
sg6
g7
(g8
(I0
tp4610
g10
tp4611
Rp4612
(I1
(I0
I6
tp4613
g17
I00
g20
tp4614
bsasS'P2726__1__1800___2002.png'
p4615
(lp4616
(dp4617
g4
g5
sg6
g7
(g8
(I0
tp4618
g10
tp4619
Rp4620
(I1
(I0
I6
tp4621
g17
I00
g20
tp4622
bsasS'P0989__1__0___500.png'
p4623
(lp4624
(dp4625
g4
g5
sg6
g7
(g8
(I0
tp4626
g10
tp4627
Rp4628
(I1
(I0
I6
tp4629
g17
I00
g20
tp4630
bsasS'P0476__1__0___629.png'
p4631
(lp4632
(dp4633
g4
g5
sg6
g7
(g8
(I0
tp4634
g10
tp4635
Rp4636
(I1
(I0
I6
tp4637
g17
I00
g20
tp4638
bsasS'P2286__1__900___500.png'
p4639
(lp4640
(dp4641
g4
g5
sg6
g7
(g8
(I0
tp4642
g10
tp4643
Rp4644
(I1
(I0
I6
tp4645
g17
I00
g20
tp4646
bsasS'P0864__1__2071___1000.png'
p4647
(lp4648
(dp4649
g4
g5
sg6
g7
(g8
(I0
tp4650
g10
tp4651
Rp4652
(I1
(I0
I6
tp4653
g17
I00
g20
tp4654
bsasS'P1314__1__0___1000.png'
p4655
(lp4656
(dp4657
g4
g5
sg6
g7
(g8
(I0
tp4658
g10
tp4659
Rp4660
(I1
(I0
I6
tp4661
g17
I00
g20
tp4662
bsasS'P1007__1__6300___662.png'
p4663
(lp4664
(dp4665
g4
g5
sg6
g7
(g8
(I0
tp4666
g10
tp4667
Rp4668
(I1
(I0
I6
tp4669
g17
I00
g20
tp4670
bsasS'P0128__1__657___1418.png'
p4671
(lp4672
(dp4673
g4
g5
sg6
g7
(g8
(I0
tp4674
g10
tp4675
Rp4676
(I1
(I0
I6
tp4677
g17
I00
g20
tp4678
bsasS'P2789__1__3654___3000.png'
p4679
(lp4680
(dp4681
g4
g5
sg6
g7
(g8
(I0
tp4682
g10
tp4683
Rp4684
(I1
(I0
I6
tp4685
g17
I00
g20
tp4686
bsasS'P0837__1__0___1500.png'
p4687
(lp4688
(dp4689
g4
g5
sg6
g7
(g8
(I0
tp4690
g10
tp4691
Rp4692
(I1
(I0
I6
tp4693
g17
I00
g20
tp4694
bsasS'P2789__1__2700___3897.png'
p4695
(lp4696
(dp4697
g4
g5
sg6
g7
(g8
(I0
tp4698
g10
tp4699
Rp4700
(I1
(I0
I6
tp4701
g17
I00
g20
tp4702
bsasS'P0964__1__900___500.png'
p4703
(lp4704
(dp4705
g4
g5
sg6
g7
(g8
(I0
tp4706
g10
tp4707
Rp4708
(I1
(I0
I6
tp4709
g17
I00
g20
tp4710
bsasS'P1332__1__2700___2500.png'
p4711
(lp4712
(dp4713
g4
g5
sg6
g7
(g8
(I0
tp4714
g10
tp4715
Rp4716
(I1
(I0
I6
tp4717
g17
I00
g20
tp4718
bsasS'P0887__1__1096___1000.png'
p4719
(lp4720
(dp4721
g4
g5
sg6
g7
(g8
(I0
tp4722
g10
tp4723
Rp4724
(I1
(I0
I6
tp4725
g17
I00
g20
tp4726
bsasS'P1234__1__900___1500.png'
p4727
(lp4728
(dp4729
g4
g5
sg6
g7
(g8
(I0
tp4730
g10
tp4731
Rp4732
(I1
(I0
I6
tp4733
g17
I00
g20
tp4734
bsasS'P0864__1__1800___1444.png'
p4735
(lp4736
(dp4737
g4
g5
sg6
g7
(g8
(I0
tp4738
g10
tp4739
Rp4740
(I1
(I0
I6
tp4741
g17
I00
g20
tp4742
bsasS'P1275__1__1800___1000.png'
p4743
(lp4744
(dp4745
g4
g5
sg6
g7
(g8
(I0
tp4746
g10
tp4747
Rp4748
(I1
(I0
I6
tp4749
g17
I00
g20
tp4750
bsasS'P1075__1__0___1500.png'
p4751
(lp4752
(dp4753
g4
g5
sg6
g7
(g8
(I0
tp4754
g10
tp4755
Rp4756
(I1
(I0
I6
tp4757
g17
I00
g20
tp4758
bsasS'P1315__1__2700___1500.png'
p4759
(lp4760
(dp4761
g4
g5
sg6
g7
(g8
(I0
tp4762
g10
tp4763
Rp4764
(I1
(I0
I6
tp4765
g17
I00
g20
tp4766
bsasS'P0696__1__539___1000.png'
p4767
(lp4768
(dp4769
g4
g5
sg6
g7
(g8
(I0
tp4770
g10
tp4771
Rp4772
(I1
(I0
I6
tp4773
g17
I00
g20
tp4774
bsasS'P2645__1__0___2500.png'
p4775
(lp4776
(dp4777
g4
g5
sg6
g7
(g8
(I0
tp4778
g10
tp4779
Rp4780
(I1
(I0
I6
tp4781
g17
I00
g20
tp4782
bsasS'P2758__1__900___1500.png'
p4783
(lp4784
(dp4785
g4
g5
sg6
g7
(g8
(I0
tp4786
g10
tp4787
Rp4788
(I1
(I0
I6
tp4789
g17
I00
g20
tp4790
bsasS'P1860__1__900___0.png'
p4791
(lp4792
(dp4793
g4
g5
sg6
g7
(g8
(I0
tp4794
g10
tp4795
Rp4796
(I1
(I0
I6
tp4797
g17
I00
g20
tp4798
bsasS'P1234__1__3000___500.png'
p4799
(lp4800
(dp4801
g4
g5
sg6
g7
(g8
(I0
tp4802
g10
tp4803
Rp4804
(I1
(I0
I6
tp4805
g17
I00
g20
tp4806
bsasS'P1075__1__0___2000.png'
p4807
(lp4808
(dp4809
g4
g5
sg6
g7
(g8
(I0
tp4810
g10
tp4811
Rp4812
(I1
(I0
I6
tp4813
g17
I00
g20
tp4814
bsasS'P2733__1__1800___2000.png'
p4815
(lp4816
(dp4817
g4
g5
sg6
g7
(g8
(I0
tp4818
g10
tp4819
Rp4820
(I1
(I0
I6
tp4821
g17
I00
g20
tp4822
bsasS'P0801__1__0___0.png'
p4823
(lp4824
(dp4825
g4
g5
sg6
g7
(g8
(I0
tp4826
g10
tp4827
Rp4828
(I1
(I0
I6
tp4829
g17
I00
g20
tp4830
bsasS'P2286__1__0___0.png'
p4831
(lp4832
(dp4833
g4
g5
sg6
g7
(g8
(I0
tp4834
g10
tp4835
Rp4836
(I1
(I0
I6
tp4837
g17
I00
g20
tp4838
bsasS'P0683__1__0___500.png'
p4839
(lp4840
(dp4841
g4
g5
sg6
g7
(g8
(I0
tp4842
g10
tp4843
Rp4844
(I1
(I0
I6
tp4845
g17
I00
g20
tp4846
bsasS'P0977__1__900___1500.png'
p4847
(lp4848
(dp4849
g4
g5
sg6
g7
(g8
(I0
tp4850
g10
tp4851
Rp4852
(I1
(I0
I6
tp4853
g17
I00
g20
tp4854
bsasS'P0543__1__149___240.png'
p4855
(lp4856
(dp4857
g4
g5
sg6
g7
(g8
(I0
tp4858
g10
tp4859
Rp4860
(I1
(I0
I6
tp4861
g17
I00
g20
tp4862
bsasS'P2701__1__2700___500.png'
p4863
(lp4864
(dp4865
g4
g5
sg6
g7
(g8
(I0
tp4866
g10
tp4867
Rp4868
(I1
(I0
I6
tp4869
g17
I00
g20
tp4870
bsasS'P0331__1__900___500.png'
p4871
(lp4872
(dp4873
g4
g5
sg6
g7
(g8
(I0
tp4874
g10
tp4875
Rp4876
(I1
(I0
I6
tp4877
g17
I00
g20
tp4878
bsasS'P2678__1__0___1000.png'
p4879
(lp4880
(dp4881
g4
g5
sg6
g7
(g8
(I0
tp4882
g10
tp4883
Rp4884
(I1
(I0
I6
tp4885
g17
I00
g20
tp4886
bsasS'P1268__1__900___2000.png'
p4887
(lp4888
(dp4889
g4
g5
sg6
g7
(g8
(I0
tp4890
g10
tp4891
Rp4892
(I1
(I0
I6
tp4893
g17
I00
g20
tp4894
bsasS'P1342__1__3000___1500.png'
p4895
(lp4896
(dp4897
g4
g5
sg6
g7
(g8
(I0
tp4898
g10
tp4899
Rp4900
(I1
(I0
I6
tp4901
g17
I00
g20
tp4902
bsasS'P2678__1__900___2040.png'
p4903
(lp4904
(dp4905
g4
g5
sg6
g7
(g8
(I0
tp4906
g10
tp4907
Rp4908
(I1
(I0
I6
tp4909
g17
I00
g20
tp4910
bsasS'P1007__1__2700___500.png'
p4911
(lp4912
(dp4913
g4
g5
sg6
g7
(g8
(I0
tp4914
g10
tp4915
Rp4916
(I1
(I0
I6
tp4917
g17
I00
g20
tp4918
bsasS'P1332__1__900___1500.png'
p4919
(lp4920
(dp4921
g4
g5
sg6
g7
(g8
(I0
tp4922
g10
tp4923
Rp4924
(I1
(I0
I6
tp4925
g17
I00
g20
tp4926
bsasS'P2789__1__3654___3500.png'
p4927
(lp4928
(dp4929
g4
g5
sg6
g7
(g8
(I0
tp4930
g10
tp4931
Rp4932
(I1
(I0
I6
tp4933
g17
I00
g20
tp4934
bsasS'P2758__1__1800___1500.png'
p4935
(lp4936
(dp4937
g4
g5
sg6
g7
(g8
(I0
tp4938
g10
tp4939
Rp4940
(I1
(I0
I6
tp4941
g17
I00
g20
tp4942
bsasS'P0887__1__900___2000.png'
p4943
(lp4944
(dp4945
g4
g5
sg6
g7
(g8
(I0
tp4946
g10
tp4947
Rp4948
(I1
(I0
I6
tp4949
g17
I00
g20
tp4950
bsasS'P2059__1__0___500.png'
p4951
(lp4952
(dp4953
g4
g5
sg6
g7
(g8
(I0
tp4954
g10
tp4955
Rp4956
(I1
(I0
I6
tp4957
g17
I00
g20
tp4958
bsasS'P1356__1__0___1000.png'
p4959
(lp4960
(dp4961
g4
g5
sg6
g7
(g8
(I0
tp4962
g10
tp4963
Rp4964
(I1
(I0
I6
tp4965
g17
I00
g20
tp4966
bsasS'P1234__1__3000___2500.png'
p4967
(lp4968
(dp4969
g4
g5
sg6
g7
(g8
(I0
tp4970
g10
tp4971
Rp4972
(I1
(I0
I6
tp4973
g17
I00
g20
tp4974
bsasS'P1332__1__1800___2500.png'
p4975
(lp4976
(dp4977
g4
g5
sg6
g7
(g8
(I0
tp4978
g10
tp4979
Rp4980
(I1
(I0
I6
tp4981
g17
I00
g20
tp4982
bsasS'P0704__1__1136___836.png'
p4983
(lp4984
(dp4985
g4
g5
sg6
g7
(g8
(I0
tp4986
g10
tp4987
Rp4988
(I1
(I0
I6
tp4989
g17
I00
g20
tp4990
bsasS'P0795__1__776___1000.png'
p4991
(lp4992
(dp4993
g4
g5
sg6
g7
(g8
(I0
tp4994
g10
tp4995
Rp4996
(I1
(I0
I6
tp4997
g17
I00
g20
tp4998
bsasS'P1273__1__0___500.png'
p4999
(lp5000
(dp5001
g4
g5
sg6
g7
(g8
(I0
tp5002
g10
tp5003
Rp5004
(I1
(I0
I6
tp5005
g17
I00
g20
tp5006
bsasS'P2794__1__2700___2500.png'
p5007
(lp5008
(dp5009
g4
g5
sg6
g7
(g8
(I0
tp5010
g10
tp5011
Rp5012
(I1
(I0
I6
tp5013
g17
I00
g20
tp5014
bsasS'P0526__1__900___0.png'
p5015
(lp5016
(dp5017
g4
g5
sg6
g7
(g8
(I0
tp5018
g10
tp5019
Rp5020
(I1
(I0
I6
tp5021
g17
I00
g20
tp5022
bsasS'P1429__1__1800___2000.png'
p5023
(lp5024
(dp5025
g4
g5
sg6
g7
(g8
(I0
tp5026
g10
tp5027
Rp5028
(I1
(I0
I6
tp5029
g17
I00
g20
tp5030
bsasS'P2794__1__0___2500.png'
p5031
(lp5032
(dp5033
g4
g5
sg6
g7
(g8
(I0
tp5034
g10
tp5035
Rp5036
(I1
(I0
I6
tp5037
g17
I00
g20
tp5038
bsasS'P0977__1__1053___1617.png'
p5039
(lp5040
(dp5041
g4
g5
sg6
g7
(g8
(I0
tp5042
g10
tp5043
Rp5044
(I1
(I0
I6
tp5045
g17
I00
g20
tp5046
bsasS'P2285__1__900___500.png'
p5047
(lp5048
(dp5049
g4
g5
sg6
g7
(g8
(I0
tp5050
g10
tp5051
Rp5052
(I1
(I0
I6
tp5053
g17
I00
g20
tp5054
bsasS'P1075__1__900___1000.png'
p5055
(lp5056
(dp5057
g4
g5
sg6
g7
(g8
(I0
tp5058
g10
tp5059
Rp5060
(I1
(I0
I6
tp5061
g17
I00
g20
tp5062
bsasS'P0262__1__900___1000.png'
p5063
(lp5064
(dp5065
g4
g5
sg6
g7
(g8
(I0
tp5066
g10
tp5067
Rp5068
(I1
(I0
I6
tp5069
g17
I00
g20
tp5070
bsasS'P1266__1__3000___0.png'
p5071
(lp5072
(dp5073
g4
g5
sg6
g7
(g8
(I0
tp5074
g10
tp5075
Rp5076
(I1
(I0
I6
tp5077
g17
I00
g20
tp5078
bsasS'P2794__1__0___0.png'
p5079
(lp5080
(dp5081
g4
g5
sg6
g7
(g8
(I0
tp5082
g10
tp5083
Rp5084
(I1
(I0
I6
tp5085
g17
I00
g20
tp5086
bsasS'P0704__1__0___836.png'
p5087
(lp5088
(dp5089
g4
g5
sg6
g7
(g8
(I0
tp5090
g10
tp5091
Rp5092
(I1
(I0
I6
tp5093
g17
I00
g20
tp5094
bsasS'P1278__1__4200___1000.png'
p5095
(lp5096
(dp5097
g4
g5
sg6
g7
(g8
(I0
tp5098
g10
tp5099
Rp5100
(I1
(I0
I6
tp5101
g17
I00
g20
tp5102
bsasS'P2789__1__0___3000.png'
p5103
(lp5104
(dp5105
g4
g5
sg6
g7
(g8
(I0
tp5106
g10
tp5107
Rp5108
(I1
(I0
I6
tp5109
g17
I00
g20
tp5110
bsasS'P0550__1__410___243.png'
p5111
(lp5112
(dp5113
g4
g5
sg6
g7
(g8
(I0
tp5114
g10
tp5115
Rp5116
(I1
(I0
I6
tp5117
g17
I00
g20
tp5118
bsasS'P0858__1__900___865.png'
p5119
(lp5120
(dp5121
g4
g5
sg6
g7
(g8
(I0
tp5122
g10
tp5123
Rp5124
(I1
(I0
I6
tp5125
g17
I00
g20
tp5126
bsasS'P2285__1__1800___1000.png'
p5127
(lp5128
(dp5129
g4
g5
sg6
g7
(g8
(I0
tp5130
g10
tp5131
Rp5132
(I1
(I0
I6
tp5133
g17
I00
g20
tp5134
bsasS'P2789__1__1800___3500.png'
p5135
(lp5136
(dp5137
g4
g5
sg6
g7
(g8
(I0
tp5138
g10
tp5139
Rp5140
(I1
(I0
I6
tp5141
g17
I00
g20
tp5142
bsasS'P0970__1__0___500.png'
p5143
(lp5144
(dp5145
g4
g5
sg6
g7
(g8
(I0
tp5146
g10
tp5147
Rp5148
(I1
(I0
I6
tp5149
g17
I00
g20
tp5150
bsasS'P1275__1__1800___1500.png'
p5151
(lp5152
(dp5153
g4
g5
sg6
g7
(g8
(I0
tp5154
g10
tp5155
Rp5156
(I1
(I0
I6
tp5157
g17
I00
g20
tp5158
bsasS'P0799__1__0___1000.png'
p5159
(lp5160
(dp5161
g4
g5
sg6
g7
(g8
(I0
tp5162
g10
tp5163
Rp5164
(I1
(I0
I6
tp5165
g17
I00
g20
tp5166
bsasS'P2285__1__900___2500.png'
p5167
(lp5168
(dp5169
g4
g5
sg6
g7
(g8
(I0
tp5170
g10
tp5171
Rp5172
(I1
(I0
I6
tp5173
g17
I00
g20
tp5174
bsasS'P0622__1__27___500.png'
p5175
(lp5176
(dp5177
g4
g5
sg6
g7
(g8
(I0
tp5178
g10
tp5179
Rp5180
(I1
(I0
I6
tp5181
g17
I00
g20
tp5182
bsasS'P1738__1__1800___2500.png'
p5183
(lp5184
(dp5185
g4
g5
sg6
g7
(g8
(I0
tp5186
g10
tp5187
Rp5188
(I1
(I0
I6
tp5189
g17
I00
g20
tp5190
bsasS'P0858__1__0___865.png'
p5191
(lp5192
(dp5193
g4
g5
sg6
g7
(g8
(I0
tp5194
g10
tp5195
Rp5196
(I1
(I0
I6
tp5197
g17
I00
g20
tp5198
bsasS'P1090__1__900___800.png'
p5199
(lp5200
(dp5201
g4
g5
sg6
g7
(g8
(I0
tp5202
g10
tp5203
Rp5204
(I1
(I0
I6
tp5205
g17
I00
g20
tp5206
bsasS'P1275__1__2700___3000.png'
p5207
(lp5208
(dp5209
g4
g5
sg6
g7
(g8
(I0
tp5210
g10
tp5211
Rp5212
(I1
(I0
I6
tp5213
g17
I00
g20
tp5214
bsasS'P0110__1__900___1000.png'
p5215
(lp5216
(dp5217
g4
g5
sg6
g7
(g8
(I0
tp5218
g10
tp5219
Rp5220
(I1
(I0
I6
tp5221
g17
I00
g20
tp5222
bsasS'P2726__1__0___2002.png'
p5223
(lp5224
(dp5225
g4
g5
sg6
g7
(g8
(I0
tp5226
g10
tp5227
Rp5228
(I1
(I0
I6
tp5229
g17
I00
g20
tp5230
bsasS'P2645__1__3600___0.png'
p5231
(lp5232
(dp5233
g4
g5
sg6
g7
(g8
(I0
tp5234
g10
tp5235
Rp5236
(I1
(I0
I6
tp5237
g17
I00
g20
tp5238
bsasS'P0801__1__0___1000.png'
p5239
(lp5240
(dp5241
g4
g5
sg6
g7
(g8
(I0
tp5242
g10
tp5243
Rp5244
(I1
(I0
I6
tp5245
g17
I00
g20
tp5246
bsasS'P0683__1__900___500.png'
p5247
(lp5248
(dp5249
g4
g5
sg6
g7
(g8
(I0
tp5250
g10
tp5251
Rp5252
(I1
(I0
I6
tp5253
g17
I00
g20
tp5254
bsasS'P0128__1__657___1000.png'
p5255
(lp5256
(dp5257
g4
g5
sg6
g7
(g8
(I0
tp5258
g10
tp5259
Rp5260
(I1
(I0
I6
tp5261
g17
I00
g20
tp5262
bsasS'P1386__1__1800___1000.png'
p5263
(lp5264
(dp5265
g4
g5
sg6
g7
(g8
(I0
tp5266
g10
tp5267
Rp5268
(I1
(I0
I6
tp5269
g17
I00
g20
tp5270
bsasS'P1332__1__3000___2500.png'
p5271
(lp5272
(dp5273
g4
g5
sg6
g7
(g8
(I0
tp5274
g10
tp5275
Rp5276
(I1
(I0
I6
tp5277
g17
I00
g20
tp5278
bsasS'P2758__1__4500___1000.png'
p5279
(lp5280
(dp5281
g4
g5
sg6
g7
(g8
(I0
tp5282
g10
tp5283
Rp5284
(I1
(I0
I6
tp5285
g17
I00
g20
tp5286
bsasS'P2678__1__2700___2040.png'
p5287
(lp5288
(dp5289
g4
g5
sg6
g7
(g8
(I0
tp5290
g10
tp5291
Rp5292
(I1
(I0
I6
tp5293
g17
I00
g20
tp5294
bsasS'P2726__1__0___1000.png'
p5295
(lp5296
(dp5297
g4
g5
sg6
g7
(g8
(I0
tp5298
g10
tp5299
Rp5300
(I1
(I0
I6
tp5301
g17
I00
g20
tp5302
bsasS'P0795__1__0___500.png'
p5303
(lp5304
(dp5305
g4
g5
sg6
g7
(g8
(I0
tp5306
g10
tp5307
Rp5308
(I1
(I0
I6
tp5309
g17
I00
g20
tp5310
bsasS'P1242__1__2700___1000.png'
p5311
(lp5312
(dp5313
g4
g5
sg6
g7
(g8
(I0
tp5314
g10
tp5315
Rp5316
(I1
(I0
I6
tp5317
g17
I00
g20
tp5318
bsasS'P1242__1__1800___1000.png'
p5319
(lp5320
(dp5321
g4
g5
sg6
g7
(g8
(I0
tp5322
g10
tp5323
Rp5324
(I1
(I0
I6
tp5325
g17
I00
g20
tp5326
bsasS'P2726__1__1800___1000.png'
p5327
(lp5328
(dp5329
g4
g5
sg6
g7
(g8
(I0
tp5330
g10
tp5331
Rp5332
(I1
(I0
I6
tp5333
g17
I00
g20
tp5334
bsasS'P0796__1__0___1000.png'
p5335
(lp5336
(dp5337
g4
g5
sg6
g7
(g8
(I0
tp5338
g10
tp5339
Rp5340
(I1
(I0
I6
tp5341
g17
I00
g20
tp5342
bsasS'P0179__1__2700___3500.png'
p5343
(lp5344
(dp5345
g4
g5
sg6
g7
(g8
(I0
tp5346
g10
tp5347
Rp5348
(I1
(I0
I6
tp5349
g17
I00
g20
tp5350
bsasS'P0300__1__0___0.png'
p5351
(lp5352
(dp5353
g4
g5
sg6
g7
(g8
(I0
tp5354
g10
tp5355
Rp5356
(I1
(I0
I6
tp5357
g17
I00
g20
tp5358
bsasS'P0683__1__1029___500.png'
p5359
(lp5360
(dp5361
g4
g5
sg6
g7
(g8
(I0
tp5362
g10
tp5363
Rp5364
(I1
(I0
I6
tp5365
g17
I00
g20
tp5366
bsasS'P1075__1__1163___0.png'
p5367
(lp5368
(dp5369
g4
g5
sg6
g7
(g8
(I0
tp5370
g10
tp5371
Rp5372
(I1
(I0
I6
tp5373
g17
I00
g20
tp5374
bsasS'P1332__1__900___500.png'
p5375
(lp5376
(dp5377
g4
g5
sg6
g7
(g8
(I0
tp5378
g10
tp5379
Rp5380
(I1
(I0
I6
tp5381
g17
I00
g20
tp5382
bsasS'P0763__1__658___498.png'
p5383
(lp5384
(dp5385
g4
g5
sg6
g7
(g8
(I0
tp5386
g10
tp5387
Rp5388
(I1
(I0
I6
tp5389
g17
I00
g20
tp5390
bsasS'P0696__1__539___1500.png'
p5391
(lp5392
(dp5393
g4
g5
sg6
g7
(g8
(I0
tp5394
g10
tp5395
Rp5396
(I1
(I0
I6
tp5397
g17
I00
g20
tp5398
bsasS'P0897__1__0___3000.png'
p5399
(lp5400
(dp5401
g4
g5
sg6
g7
(g8
(I0
tp5402
g10
tp5403
Rp5404
(I1
(I0
I6
tp5405
g17
I00
g20
tp5406
bsasS'P2771__1__900___0.png'
p5407
(lp5408
(dp5409
g4
g5
sg6
g7
(g8
(I0
tp5410
g10
tp5411
Rp5412
(I1
(I0
I6
tp5413
g17
I00
g20
tp5414
bsasS'P2678__1__1800___1000.png'
p5415
(lp5416
(dp5417
g4
g5
sg6
g7
(g8
(I0
tp5418
g10
tp5419
Rp5420
(I1
(I0
I6
tp5421
g17
I00
g20
tp5422
bsasS'P2726__1__1832___0.png'
p5423
(lp5424
(dp5425
g4
g5
sg6
g7
(g8
(I0
tp5426
g10
tp5427
Rp5428
(I1
(I0
I6
tp5429
g17
I00
g20
tp5430
bsasS'P0864__1__900___0.png'
p5431
(lp5432
(dp5433
g4
g5
sg6
g7
(g8
(I0
tp5434
g10
tp5435
Rp5436
(I1
(I0
I6
tp5437
g17
I00
g20
tp5438
bsasS'P1090__1__0___800.png'
p5439
(lp5440
(dp5441
g4
g5
sg6
g7
(g8
(I0
tp5442
g10
tp5443
Rp5444
(I1
(I0
I6
tp5445
g17
I00
g20
tp5446
bsasS'P0564__1__0___0.png'
p5447
(lp5448
(dp5449
g4
g5
sg6
g7
(g8
(I0
tp5450
g10
tp5451
Rp5452
(I1
(I0
I6
tp5453
g17
I00
g20
tp5454
bsasS'P0729__1__0___0.png'
p5455
(lp5456
(dp5457
g4
g5
sg6
g7
(g8
(I0
tp5458
g10
tp5459
Rp5460
(I1
(I0
I6
tp5461
g17
I00
g20
tp5462
bsasS'P0683__1__0___1000.png'
p5463
(lp5464
(dp5465
g4
g5
sg6
g7
(g8
(I0
tp5466
g10
tp5467
Rp5468
(I1
(I0
I6
tp5469
g17
I00
g20
tp5470
bsasS'P0259__1__900___1669.png'
p5471
(lp5472
(dp5473
g4
g5
sg6
g7
(g8
(I0
tp5474
g10
tp5475
Rp5476
(I1
(I0
I6
tp5477
g17
I00
g20
tp5478
bsasS'P0019__1__1800___0.png'
p5479
(lp5480
(dp5481
g4
g5
sg6
g7
(g8
(I0
tp5482
g10
tp5483
Rp5484
(I1
(I0
I6
tp5485
g17
I00
g20
tp5486
bsasS'P0551__1__312___0.png'
p5487
(lp5488
(dp5489
g4
g5
sg6
g7
(g8
(I0
tp5490
g10
tp5491
Rp5492
(I1
(I0
I6
tp5493
g17
I00
g20
tp5494
bsasS'P0897__1__0___3500.png'
p5495
(lp5496
(dp5497
g4
g5
sg6
g7
(g8
(I0
tp5498
g10
tp5499
Rp5500
(I1
(I0
I6
tp5501
g17
I00
g20
tp5502
bsasS'P2758__1__2700___3500.png'
p5503
(lp5504
(dp5505
g4
g5
sg6
g7
(g8
(I0
tp5506
g10
tp5507
Rp5508
(I1
(I0
I6
tp5509
g17
I00
g20
tp5510
bsasS'P1234__1__2700___500.png'
p5511
(lp5512
(dp5513
g4
g5
sg6
g7
(g8
(I0
tp5514
g10
tp5515
Rp5516
(I1
(I0
I6
tp5517
g17
I00
g20
tp5518
bsasS'P1273__1__0___1000.png'
p5519
(lp5520
(dp5521
g4
g5
sg6
g7
(g8
(I0
tp5522
g10
tp5523
Rp5524
(I1
(I0
I6
tp5525
g17
I00
g20
tp5526
bsasS'P2285__1__2589___2500.png'
p5527
(lp5528
(dp5529
g4
g5
sg6
g7
(g8
(I0
tp5530
g10
tp5531
Rp5532
(I1
(I0
I6
tp5533
g17
I00
g20
tp5534
bsasS'P1386__1__2700___1000.png'
p5535
(lp5536
(dp5537
g4
g5
sg6
g7
(g8
(I0
tp5538
g10
tp5539
Rp5540
(I1
(I0
I6
tp5541
g17
I00
g20
tp5542
bsasS'P2285__1__900___1500.png'
p5543
(lp5544
(dp5545
g4
g5
sg6
g7
(g8
(I0
tp5546
g10
tp5547
Rp5548
(I1
(I0
I6
tp5549
g17
I00
g20
tp5550
bsasS'P1860__1__956___1138.png'
p5551
(lp5552
(dp5553
g4
g5
sg6
g7
(g8
(I0
tp5554
g10
tp5555
Rp5556
(I1
(I0
I6
tp5557
g17
I00
g20
tp5558
bsasS'P0789__1__649___0.png'
p5559
(lp5560
(dp5561
g4
g5
sg6
g7
(g8
(I0
tp5562
g10
tp5563
Rp5564
(I1
(I0
I6
tp5565
g17
I00
g20
tp5566
bsasS'P0897__1__0___2500.png'
p5567
(lp5568
(dp5569
g4
g5
sg6
g7
(g8
(I0
tp5570
g10
tp5571
Rp5572
(I1
(I0
I6
tp5573
g17
I00
g20
tp5574
bsasS'P2285__1__1800___1500.png'
p5575
(lp5576
(dp5577
g4
g5
sg6
g7
(g8
(I0
tp5578
g10
tp5579
Rp5580
(I1
(I0
I6
tp5581
g17
I00
g20
tp5582
bsasS'P2701__1__2700___1000.png'
p5583
(lp5584
(dp5585
g4
g5
sg6
g7
(g8
(I0
tp5586
g10
tp5587
Rp5588
(I1
(I0
I6
tp5589
g17
I00
g20
tp5590
bsasS'P2286__1__1563___1466.png'
p5591
(lp5592
(dp5593
g4
g5
sg6
g7
(g8
(I0
tp5594
g10
tp5595
Rp5596
(I1
(I0
I6
tp5597
g17
I00
g20
tp5598
bsasS'P0799__1__0___0.png'
p5599
(lp5600
(dp5601
g4
g5
sg6
g7
(g8
(I0
tp5602
g10
tp5603
Rp5604
(I1
(I0
I6
tp5605
g17
I00
g20
tp5606
bsasS'P2758__1__2700___2000.png'
p5607
(lp5608
(dp5609
g4
g5
sg6
g7
(g8
(I0
tp5610
g10
tp5611
Rp5612
(I1
(I0
I6
tp5613
g17
I00
g20
tp5614
bsasS'P1275__1__1800___3000.png'
p5615
(lp5616
(dp5617
g4
g5
sg6
g7
(g8
(I0
tp5618
g10
tp5619
Rp5620
(I1
(I0
I6
tp5621
g17
I00
g20
tp5622
bsasS'P0970__1__0___540.png'
p5623
(lp5624
(dp5625
g4
g5
sg6
g7
(g8
(I0
tp5626
g10
tp5627
Rp5628
(I1
(I0
I6
tp5629
g17
I00
g20
tp5630
bsasS'P0897__1__900___4428.png'
p5631
(lp5632
(dp5633
g4
g5
sg6
g7
(g8
(I0
tp5634
g10
tp5635
Rp5636
(I1
(I0
I6
tp5637
g17
I00
g20
tp5638
bsasS'P0262__1__1284___1500.png'
p5639
(lp5640
(dp5641
g4
g5
sg6
g7
(g8
(I0
tp5642
g10
tp5643
Rp5644
(I1
(I0
I6
tp5645
g17
I00
g20
tp5646
bsasS'P0887__1__1096___0.png'
p5647
(lp5648
(dp5649
g4
g5
sg6
g7
(g8
(I0
tp5650
g10
tp5651
Rp5652
(I1
(I0
I6
tp5653
g17
I00
g20
tp5654
bsasS'P1786__1__900___1500.png'
p5655
(lp5656
(dp5657
g4
g5
sg6
g7
(g8
(I0
tp5658
g10
tp5659
Rp5660
(I1
(I0
I6
tp5661
g17
I00
g20
tp5662
bsasS'P0053__1__409___0.png'
p5663
(lp5664
(dp5665
g4
g5
sg6
g7
(g8
(I0
tp5666
g10
tp5667
Rp5668
(I1
(I0
I6
tp5669
g17
I00
g20
tp5670
bsasS'P0839__1__0___0.png'
p5671
(lp5672
(dp5673
g4
g5
sg6
g7
(g8
(I0
tp5674
g10
tp5675
Rp5676
(I1
(I0
I6
tp5677
g17
I00
g20
tp5678
bsasS'P0837__1__684___2120.png'
p5679
(lp5680
(dp5681
g4
g5
sg6
g7
(g8
(I0
tp5682
g10
tp5683
Rp5684
(I1
(I0
I6
tp5685
g17
I00
g20
tp5686
bsasS'P2678__1__2700___1500.png'
p5687
(lp5688
(dp5689
g4
g5
sg6
g7
(g8
(I0
tp5690
g10
tp5691
Rp5692
(I1
(I0
I6
tp5693
g17
I00
g20
tp5694
bsasS'P1386__1__3626___1500.png'
p5695
(lp5696
(dp5697
g4
g5
sg6
g7
(g8
(I0
tp5698
g10
tp5699
Rp5700
(I1
(I0
I6
tp5701
g17
I00
g20
tp5702
bsasS'P0347__1__0___2000.png'
p5703
(lp5704
(dp5705
g4
g5
sg6
g7
(g8
(I0
tp5706
g10
tp5707
Rp5708
(I1
(I0
I6
tp5709
g17
I00
g20
tp5710
bsasS'P1278__1__4200___1500.png'
p5711
(lp5712
(dp5713
g4
g5
sg6
g7
(g8
(I0
tp5714
g10
tp5715
Rp5716
(I1
(I0
I6
tp5717
g17
I00
g20
tp5718
bsasS'P2429__1__0___1000.png'
p5719
(lp5720
(dp5721
g4
g5
sg6
g7
(g8
(I0
tp5722
g10
tp5723
Rp5724
(I1
(I0
I6
tp5725
g17
I00
g20
tp5726
bsasS'P1623__1__2700___4000.png'
p5727
(lp5728
(dp5729
g4
g5
sg6
g7
(g8
(I0
tp5730
g10
tp5731
Rp5732
(I1
(I0
I6
tp5733
g17
I00
g20
tp5734
bsasS'P0420__1__620___500.png'
p5735
(lp5736
(dp5737
g4
g5
sg6
g7
(g8
(I0
tp5738
g10
tp5739
Rp5740
(I1
(I0
I6
tp5741
g17
I00
g20
tp5742
bsasS'P2794__1__1800___1500.png'
p5743
(lp5744
(dp5745
g4
g5
sg6
g7
(g8
(I0
tp5746
g10
tp5747
Rp5748
(I1
(I0
I6
tp5749
g17
I00
g20
tp5750
bsasS'P1075__1__900___500.png'
p5751
(lp5752
(dp5753
g4
g5
sg6
g7
(g8
(I0
tp5754
g10
tp5755
Rp5756
(I1
(I0
I6
tp5757
g17
I00
g20
tp5758
bsasS'P2726__1__1832___2002.png'
p5759
(lp5760
(dp5761
g4
g5
sg6
g7
(g8
(I0
tp5762
g10
tp5763
Rp5764
(I1
(I0
I6
tp5765
g17
I00
g20
tp5766
bsasS'P0801__1__900___500.png'
p5767
(lp5768
(dp5769
g4
g5
sg6
g7
(g8
(I0
tp5770
g10
tp5771
Rp5772
(I1
(I0
I6
tp5773
g17
I00
g20
tp5774
bsasS'P0725__1__658___498.png'
p5775
(lp5776
(dp5777
g4
g5
sg6
g7
(g8
(I0
tp5778
g10
tp5779
Rp5780
(I1
(I0
I6
tp5781
g17
I00
g20
tp5782
bsasS'P0897__1__900___3500.png'
p5783
(lp5784
(dp5785
g4
g5
sg6
g7
(g8
(I0
tp5786
g10
tp5787
Rp5788
(I1
(I0
I6
tp5789
g17
I00
g20
tp5790
bsasS'P2758__1__3600___2500.png'
p5791
(lp5792
(dp5793
g4
g5
sg6
g7
(g8
(I0
tp5794
g10
tp5795
Rp5796
(I1
(I0
I6
tp5797
g17
I00
g20
tp5798
bsasS'P0796__1__0___1500.png'
p5799
(lp5800
(dp5801
g4
g5
sg6
g7
(g8
(I0
tp5802
g10
tp5803
Rp5804
(I1
(I0
I6
tp5805
g17
I00
g20
tp5806
bsasS'P2733__1__1827___0.png'
p5807
(lp5808
(dp5809
g4
g5
sg6
g7
(g8
(I0
tp5810
g10
tp5811
Rp5812
(I1
(I0
I6
tp5813
g17
I00
g20
tp5814
bsasS'P1234__1__2700___2000.png'
p5815
(lp5816
(dp5817
g4
g5
sg6
g7
(g8
(I0
tp5818
g10
tp5819
Rp5820
(I1
(I0
I6
tp5821
g17
I00
g20
tp5822
bsasS'P1860__1__956___1000.png'
p5823
(lp5824
(dp5825
g4
g5
sg6
g7
(g8
(I0
tp5826
g10
tp5827
Rp5828
(I1
(I0
I6
tp5829
g17
I00
g20
tp5830
bsasS'P1242__1__2700___1500.png'
p5831
(lp5832
(dp5833
g4
g5
sg6
g7
(g8
(I0
tp5834
g10
tp5835
Rp5836
(I1
(I0
I6
tp5837
g17
I00
g20
tp5838
bsasS'P2678__1__3225___2040.png'
p5839
(lp5840
(dp5841
g4
g5
sg6
g7
(g8
(I0
tp5842
g10
tp5843
Rp5844
(I1
(I0
I6
tp5845
g17
I00
g20
tp5846
bsasS'P2794__1__1800___2000.png'
p5847
(lp5848
(dp5849
g4
g5
sg6
g7
(g8
(I0
tp5850
g10
tp5851
Rp5852
(I1
(I0
I6
tp5853
g17
I00
g20
tp5854
bsasS'P2789__1__3654___1500.png'
p5855
(lp5856
(dp5857
g4
g5
sg6
g7
(g8
(I0
tp5858
g10
tp5859
Rp5860
(I1
(I0
I6
tp5861
g17
I00
g20
tp5862
bsasS'P0764__1__658___498.png'
p5863
(lp5864
(dp5865
g4
g5
sg6
g7
(g8
(I0
tp5866
g10
tp5867
Rp5868
(I1
(I0
I6
tp5869
g17
I00
g20
tp5870
bsasS'P2789__1__3600___3000.png'
p5871
(lp5872
(dp5873
g4
g5
sg6
g7
(g8
(I0
tp5874
g10
tp5875
Rp5876
(I1
(I0
I6
tp5877
g17
I00
g20
tp5878
bsasS'P0799__1__327___0.png'
p5879
(lp5880
(dp5881
g4
g5
sg6
g7
(g8
(I0
tp5882
g10
tp5883
Rp5884
(I1
(I0
I6
tp5885
g17
I00
g20
tp5886
bsasS'P1212__1__900___2000.png'
p5887
(lp5888
(dp5889
g4
g5
sg6
g7
(g8
(I0
tp5890
g10
tp5891
Rp5892
(I1
(I0
I6
tp5893
g17
I00
g20
tp5894
bsasS'P0945__1__0___500.png'
p5895
(lp5896
(dp5897
g4
g5
sg6
g7
(g8
(I0
tp5898
g10
tp5899
Rp5900
(I1
(I0
I6
tp5901
g17
I00
g20
tp5902
bsasS'P0579__1__0___0.png'
p5903
(lp5904
(dp5905
g4
g5
sg6
g7
(g8
(I0
tp5906
g10
tp5907
Rp5908
(I1
(I0
I6
tp5909
g17
I00
g20
tp5910
bsasS'P0887__1__0___0.png'
p5911
(lp5912
(dp5913
g4
g5
sg6
g7
(g8
(I0
tp5914
g10
tp5915
Rp5916
(I1
(I0
I6
tp5917
g17
I00
g20
tp5918
bsasS'P2758__1__5400___1000.png'
p5919
(lp5920
(dp5921
g4
g5
sg6
g7
(g8
(I0
tp5922
g10
tp5923
Rp5924
(I1
(I0
I6
tp5925
g17
I00
g20
tp5926
bsasS'P1275__1__900___2000.png'
p5927
(lp5928
(dp5929
g4
g5
sg6
g7
(g8
(I0
tp5930
g10
tp5931
Rp5932
(I1
(I0
I6
tp5933
g17
I00
g20
tp5934
bsasS'P1212__1__900___1500.png'
p5935
(lp5936
(dp5937
g4
g5
sg6
g7
(g8
(I0
tp5938
g10
tp5939
Rp5940
(I1
(I0
I6
tp5941
g17
I00
g20
tp5942
bsasS'P1314__1__0___500.png'
p5943
(lp5944
(dp5945
g4
g5
sg6
g7
(g8
(I0
tp5946
g10
tp5947
Rp5948
(I1
(I0
I6
tp5949
g17
I00
g20
tp5950
bsasS'P0353__1__170___597.png'
p5951
(lp5952
(dp5953
g4
g5
sg6
g7
(g8
(I0
tp5954
g10
tp5955
Rp5956
(I1
(I0
I6
tp5957
g17
I00
g20
tp5958
bsasS'P1332__1__900___0.png'
p5959
(lp5960
(dp5961
g4
g5
sg6
g7
(g8
(I0
tp5962
g10
tp5963
Rp5964
(I1
(I0
I6
tp5965
g17
I00
g20
tp5966
bsasS'P0929__1__0___0.png'
p5967
(lp5968
(dp5969
g4
g5
sg6
g7
(g8
(I0
tp5970
g10
tp5971
Rp5972
(I1
(I0
I6
tp5973
g17
I00
g20
tp5974
bsasS'P1623__1__2700___4358.png'
p5975
(lp5976
(dp5977
g4
g5
sg6
g7
(g8
(I0
tp5978
g10
tp5979
Rp5980
(I1
(I0
I6
tp5981
g17
I00
g20
tp5982
bsasS'P0929__1__0___4000.png'
p5983
(lp5984
(dp5985
g4
g5
sg6
g7
(g8
(I0
tp5986
g10
tp5987
Rp5988
(I1
(I0
I6
tp5989
g17
I00
g20
tp5990
bsasS'P1283__1__3000___0.png'
p5991
(lp5992
(dp5993
g4
g5
sg6
g7
(g8
(I0
tp5994
g10
tp5995
Rp5996
(I1
(I0
I6
tp5997
g17
I00
g20
tp5998
bsasS'P0801__1__0___1110.png'
p5999
(lp6000
(dp6001
g4
g5
sg6
g7
(g8
(I0
tp6002
g10
tp6003
Rp6004
(I1
(I0
I6
tp6005
g17
I00
g20
tp6006
bsasS'P0936__1__2240___500.png'
p6007
(lp6008
(dp6009
g4
g5
sg6
g7
(g8
(I0
tp6010
g10
tp6011
Rp6012
(I1
(I0
I6
tp6013
g17
I00
g20
tp6014
bsasS'P1234__1__2700___0.png'
p6015
(lp6016
(dp6017
g4
g5
sg6
g7
(g8
(I0
tp6018
g10
tp6019
Rp6020
(I1
(I0
I6
tp6021
g17
I00
g20
tp6022
bsasS'P2726__1__1800___1500.png'
p6023
(lp6024
(dp6025
g4
g5
sg6
g7
(g8
(I0
tp6026
g10
tp6027
Rp6028
(I1
(I0
I6
tp6029
g17
I00
g20
tp6030
bsasS'P0837__1__0___0.png'
p6031
(lp6032
(dp6033
g4
g5
sg6
g7
(g8
(I0
tp6034
g10
tp6035
Rp6036
(I1
(I0
I6
tp6037
g17
I00
g20
tp6038
bsasS'P0696__1__539___500.png'
p6039
(lp6040
(dp6041
g4
g5
sg6
g7
(g8
(I0
tp6042
g10
tp6043
Rp6044
(I1
(I0
I6
tp6045
g17
I00
g20
tp6046
bsasS'P2726__1__0___1500.png'
p6047
(lp6048
(dp6049
g4
g5
sg6
g7
(g8
(I0
tp6050
g10
tp6051
Rp6052
(I1
(I0
I6
tp6053
g17
I00
g20
tp6054
bsasS'P1242__1__1800___1500.png'
p6055
(lp6056
(dp6057
g4
g5
sg6
g7
(g8
(I0
tp6058
g10
tp6059
Rp6060
(I1
(I0
I6
tp6061
g17
I00
g20
tp6062
bsasS'P0110__1__900___0.png'
p6063
(lp6064
(dp6065
g4
g5
sg6
g7
(g8
(I0
tp6066
g10
tp6067
Rp6068
(I1
(I0
I6
tp6069
g17
I00
g20
tp6070
bsasS'P0622__1__0___500.png'
p6071
(lp6072
(dp6073
g4
g5
sg6
g7
(g8
(I0
tp6074
g10
tp6075
Rp6076
(I1
(I0
I6
tp6077
g17
I00
g20
tp6078
bsasS'P0524__1__103___0.png'
p6079
(lp6080
(dp6081
g4
g5
sg6
g7
(g8
(I0
tp6082
g10
tp6083
Rp6084
(I1
(I0
I6
tp6085
g17
I00
g20
tp6086
bsasS'P1314__1__2700___2000.png'
p6087
(lp6088
(dp6089
g4
g5
sg6
g7
(g8
(I0
tp6090
g10
tp6091
Rp6092
(I1
(I0
I6
tp6093
g17
I00
g20
tp6094
bsasS'P1273__1__2700___2000.png'
p6095
(lp6096
(dp6097
g4
g5
sg6
g7
(g8
(I0
tp6098
g10
tp6099
Rp6100
(I1
(I0
I6
tp6101
g17
I00
g20
tp6102
bsasS'P1090__1__0___500.png'
p6103
(lp6104
(dp6105
g4
g5
sg6
g7
(g8
(I0
tp6106
g10
tp6107
Rp6108
(I1
(I0
I6
tp6109
g17
I00
g20
tp6110
bsasS'P0799__1__327___1000.png'
p6111
(lp6112
(dp6113
g4
g5
sg6
g7
(g8
(I0
tp6114
g10
tp6115
Rp6116
(I1
(I0
I6
tp6117
g17
I00
g20
tp6118
bsasS'P2726__1__1832___2000.png'
p6119
(lp6120
(dp6121
g4
g5
sg6
g7
(g8
(I0
tp6122
g10
tp6123
Rp6124
(I1
(I0
I6
tp6125
g17
I00
g20
tp6126
bsasS'P0764__1__0___498.png'
p6127
(lp6128
(dp6129
g4
g5
sg6
g7
(g8
(I0
tp6130
g10
tp6131
Rp6132
(I1
(I0
I6
tp6133
g17
I00
g20
tp6134
bsasS'P0864__1__1800___1000.png'
p6135
(lp6136
(dp6137
g4
g5
sg6
g7
(g8
(I0
tp6138
g10
tp6139
Rp6140
(I1
(I0
I6
tp6141
g17
I00
g20
tp6142
bsasS'P2645__1__3605___0.png'
p6143
(lp6144
(dp6145
g4
g5
sg6
g7
(g8
(I0
tp6146
g10
tp6147
Rp6148
(I1
(I0
I6
tp6149
g17
I00
g20
tp6150
bsasS'P0801__1__900___1000.png'
p6151
(lp6152
(dp6153
g4
g5
sg6
g7
(g8
(I0
tp6154
g10
tp6155
Rp6156
(I1
(I0
I6
tp6157
g17
I00
g20
tp6158
bsasS'P0801__1__2424___1000.png'
p6159
(lp6160
(dp6161
g4
g5
sg6
g7
(g8
(I0
tp6162
g10
tp6163
Rp6164
(I1
(I0
I6
tp6165
g17
I00
g20
tp6166
bsasS'P0524__1__0___0.png'
p6167
(lp6168
(dp6169
g4
g5
sg6
g7
(g8
(I0
tp6170
g10
tp6171
Rp6172
(I1
(I0
I6
tp6173
g17
I00
g20
tp6174
bsasS'P0683__1__0___0.png'
p6175
(lp6176
(dp6177
g4
g5
sg6
g7
(g8
(I0
tp6178
g10
tp6179
Rp6180
(I1
(I0
I6
tp6181
g17
I00
g20
tp6182
bsasS'P1786__1__1800___1500.png'
p6183
(lp6184
(dp6185
g4
g5
sg6
g7
(g8
(I0
tp6186
g10
tp6187
Rp6188
(I1
(I0
I6
tp6189
g17
I00
g20
tp6190
bsasS'P2794__1__2700___3500.png'
p6191
(lp6192
(dp6193
g4
g5
sg6
g7
(g8
(I0
tp6194
g10
tp6195
Rp6196
(I1
(I0
I6
tp6197
g17
I00
g20
tp6198
bsasS'P1246__1__0___1000.png'
p6199
(lp6200
(dp6201
g4
g5
sg6
g7
(g8
(I0
tp6202
g10
tp6203
Rp6204
(I1
(I0
I6
tp6205
g17
I00
g20
tp6206
bsasS'P0764__1__658___0.png'
p6207
(lp6208
(dp6209
g4
g5
sg6
g7
(g8
(I0
tp6210
g10
tp6211
Rp6212
(I1
(I0
I6
tp6213
g17
I00
g20
tp6214
bsasS'P1275__1__3000___3000.png'
p6215
(lp6216
(dp6217
g4
g5
sg6
g7
(g8
(I0
tp6218
g10
tp6219
Rp6220
(I1
(I0
I6
tp6221
g17
I00
g20
tp6222
bsas.